
../gem5/tests/test-progs/zero-mult/zero-mult:     file format elf64-littleriscv


Disassembly of section .text:

00000000000103e0 <_dl_start>:
   103e0:	1141                	addi	sp,sp,-16
   103e2:	e406                	sd	ra,8(sp)
   103e4:	004000ef          	jal	103e8 <abort>

00000000000103e8 <abort>:
   103e8:	7131                	addi	sp,sp,-192
   103ea:	f922                	sd	s0,176(sp)
   103ec:	00063417          	auipc	s0,0x63
   103f0:	f4c40413          	addi	s0,s0,-180 # 73338 <lock>
   103f4:	641c                	ld	a5,8(s0)
   103f6:	f526                	sd	s1,168(sp)
   103f8:	f14a                	sd	s2,160(sp)
   103fa:	fd06                	sd	ra,184(sp)
   103fc:	8a020913          	addi	s2,tp,-1888 # fffffffffffff8a0 <__BSS_END__+0xfffffffffff8c228>
   10400:	84a2                	mv	s1,s0
   10402:	03278063          	beq	a5,s2,10422 <abort+0x3a>
   10406:	4705                	li	a4,1
   10408:	100427af          	lr.w	a5,(s0)
   1040c:	e781                	bnez	a5,10414 <abort+0x2c>
   1040e:	1ce426af          	sc.w.aq	a3,a4,(s0)
   10412:	fafd                	bnez	a3,10408 <abort+0x20>
   10414:	2781                	sext.w	a5,a5
   10416:	c781                	beqz	a5,1041e <abort+0x36>
   10418:	8522                	mv	a0,s0
   1041a:	4e0040ef          	jal	148fa <__lll_lock_wait_private>
   1041e:	01243423          	sd	s2,8(s0)
   10422:	405c                	lw	a5,4(s0)
   10424:	4818                	lw	a4,16(s0)
   10426:	2785                	addiw	a5,a5,1
   10428:	c05c                	sw	a5,4(s0)
   1042a:	ef11                	bnez	a4,10446 <abort+0x5e>
   1042c:	4785                	li	a5,1
   1042e:	c81c                	sw	a5,16(s0)
   10430:	02000793          	li	a5,32
   10434:	e43e                	sd	a5,8(sp)
   10436:	08700893          	li	a7,135
   1043a:	4505                	li	a0,1
   1043c:	002c                	addi	a1,sp,8
   1043e:	4601                	li	a2,0
   10440:	46a1                	li	a3,8
   10442:	00000073          	ecall
   10446:	4818                	lw	a4,16(s0)
   10448:	4785                	li	a5,1
   1044a:	06f71a63          	bne	a4,a5,104be <abort+0xd6>
   1044e:	405c                	lw	a5,4(s0)
   10450:	00063697          	auipc	a3,0x63
   10454:	ee06ac23          	sw	zero,-264(a3) # 73348 <stage>
   10458:	fff7869b          	addiw	a3,a5,-1
   1045c:	c054                	sw	a3,4(s0)
   1045e:	87b6                	mv	a5,a3
   10460:	e295                	bnez	a3,10484 <abort+0x9c>
   10462:	00063697          	auipc	a3,0x63
   10466:	ec06bf23          	sd	zero,-290(a3) # 73340 <lock+0x8>
   1046a:	0f50000f          	fence	iorw,ow
   1046e:	08f4a7af          	amoswap.w	a5,a5,(s1)
   10472:	2781                	sext.w	a5,a5
   10474:	00f75863          	bge	a4,a5,10484 <abort+0x9c>
   10478:	00063517          	auipc	a0,0x63
   1047c:	ec050513          	addi	a0,a0,-320 # 73338 <lock>
   10480:	514040ef          	jal	14994 <__lll_lock_wake_private>
   10484:	4519                	li	a0,6
   10486:	384180ef          	jal	2880a <raise>
   1048a:	641c                	ld	a5,8(s0)
   1048c:	8a020913          	addi	s2,tp,-1888 # fffffffffffff8a0 <__BSS_END__+0xfffffffffff8c228>
   10490:	03278363          	beq	a5,s2,104b6 <abort+0xce>
   10494:	4705                	li	a4,1
   10496:	1004a7af          	lr.w	a5,(s1)
   1049a:	e781                	bnez	a5,104a2 <abort+0xba>
   1049c:	1ce4a6af          	sc.w.aq	a3,a4,(s1)
   104a0:	fafd                	bnez	a3,10496 <abort+0xae>
   104a2:	2781                	sext.w	a5,a5
   104a4:	c799                	beqz	a5,104b2 <abort+0xca>
   104a6:	00063517          	auipc	a0,0x63
   104aa:	e9250513          	addi	a0,a0,-366 # 73338 <lock>
   104ae:	44c040ef          	jal	148fa <__lll_lock_wait_private>
   104b2:	01243423          	sd	s2,8(s0)
   104b6:	405c                	lw	a5,4(s0)
   104b8:	2785                	addiw	a5,a5,1
   104ba:	c05c                	sw	a5,4(s0)
   104bc:	a021                	j	104c4 <abort+0xdc>
   104be:	4789                	li	a5,2
   104c0:	02f71263          	bne	a4,a5,104e4 <abort+0xfc>
   104c4:	003c                	addi	a5,sp,8
   104c6:	09800613          	li	a2,152
   104ca:	4581                	li	a1,0
   104cc:	853e                	mv	a0,a5
   104ce:	470d                	li	a4,3
   104d0:	c818                	sw	a4,16(s0)
   104d2:	65d080ef          	jal	1932e <memset>
   104d6:	85aa                	mv	a1,a0
   104d8:	57fd                	li	a5,-1
   104da:	4601                	li	a2,0
   104dc:	4519                	li	a0,6
   104de:	e83e                	sd	a5,16(sp)
   104e0:	71a2d0ef          	jal	3dbfa <__sigaction>
   104e4:	4818                	lw	a4,16(s0)
   104e6:	478d                	li	a5,3
   104e8:	00f71763          	bne	a4,a5,104f6 <abort+0x10e>
   104ec:	4791                	li	a5,4
   104ee:	4519                	li	a0,6
   104f0:	c81c                	sw	a5,16(s0)
   104f2:	318180ef          	jal	2880a <raise>
   104f6:	481c                	lw	a5,16(s0)
   104f8:	4711                	li	a4,4
   104fa:	00e79563          	bne	a5,a4,10504 <abort+0x11c>
   104fe:	4795                	li	a5,5
   10500:	c81c                	sw	a5,16(s0)
   10502:	9002                	ebreak
   10504:	4715                	li	a4,5
   10506:	00e79863          	bne	a5,a4,10516 <abort+0x12e>
   1050a:	4799                	li	a5,6
   1050c:	07f00513          	li	a0,127
   10510:	c81c                	sw	a5,16(s0)
   10512:	3ef090ef          	jal	1a100 <_exit>
   10516:	9002                	ebreak

0000000000010518 <_start>:
   10518:	022000ef          	jal	1053a <load_gp>
   1051c:	87aa                	mv	a5,a0
   1051e:	00000517          	auipc	a0,0x0
   10522:	0d850513          	addi	a0,a0,216 # 105f6 <main>
   10526:	6582                	ld	a1,0(sp)
   10528:	0030                	addi	a2,sp,8
   1052a:	ff017113          	andi	sp,sp,-16
   1052e:	4681                	li	a3,0
   10530:	4701                	li	a4,0
   10532:	880a                	mv	a6,sp
   10534:	1e4000ef          	jal	10718 <__libc_start_main>
   10538:	9002                	ebreak

000000000001053a <load_gp>:
   1053a:	0005e197          	auipc	gp,0x5e
   1053e:	49618193          	addi	gp,gp,1174 # 6e9d0 <__global_pointer$>
   10542:	8082                	ret
	...

0000000000010546 <deregister_tm_clones>:
   10546:	0006e537          	lui	a0,0x6e
   1054a:	0006e737          	lui	a4,0x6e
   1054e:	89050793          	addi	a5,a0,-1904 # 6d890 <__TMC_END__>
   10552:	89070713          	addi	a4,a4,-1904 # 6d890 <__TMC_END__>
   10556:	00f70863          	beq	a4,a5,10566 <deregister_tm_clones+0x20>
   1055a:	00000793          	li	a5,0
   1055e:	c781                	beqz	a5,10566 <deregister_tm_clones+0x20>
   10560:	89050513          	addi	a0,a0,-1904
   10564:	8782                	jr	a5
   10566:	8082                	ret

0000000000010568 <register_tm_clones>:
   10568:	0006e537          	lui	a0,0x6e
   1056c:	89050793          	addi	a5,a0,-1904 # 6d890 <__TMC_END__>
   10570:	0006e737          	lui	a4,0x6e
   10574:	89070593          	addi	a1,a4,-1904 # 6d890 <__TMC_END__>
   10578:	8d9d                	sub	a1,a1,a5
   1057a:	4035d793          	srai	a5,a1,0x3
   1057e:	91fd                	srli	a1,a1,0x3f
   10580:	95be                	add	a1,a1,a5
   10582:	8585                	srai	a1,a1,0x1
   10584:	c599                	beqz	a1,10592 <register_tm_clones+0x2a>
   10586:	00000793          	li	a5,0
   1058a:	c781                	beqz	a5,10592 <register_tm_clones+0x2a>
   1058c:	89050513          	addi	a0,a0,-1904
   10590:	8782                	jr	a5
   10592:	8082                	ret

0000000000010594 <__do_global_dtors_aux>:
   10594:	1141                	addi	sp,sp,-16
   10596:	e022                	sd	s0,0(sp)
   10598:	0006e437          	lui	s0,0x6e
   1059c:	1d844783          	lbu	a5,472(s0) # 6e1d8 <completed.1>
   105a0:	e406                	sd	ra,8(sp)
   105a2:	e38d                	bnez	a5,105c4 <__do_global_dtors_aux+0x30>
   105a4:	fa3ff0ef          	jal	10546 <deregister_tm_clones>
   105a8:	0004a7b7          	lui	a5,0x4a
   105ac:	ae478793          	addi	a5,a5,-1308 # 49ae4 <__deregister_frame_info>
   105b0:	c799                	beqz	a5,105be <__do_global_dtors_aux+0x2a>
   105b2:	00066537          	lui	a0,0x66
   105b6:	cf050513          	addi	a0,a0,-784 # 65cf0 <__EH_FRAME_BEGIN__>
   105ba:	52a390ef          	jal	49ae4 <__deregister_frame_info>
   105be:	4785                	li	a5,1
   105c0:	1cf40c23          	sb	a5,472(s0)
   105c4:	60a2                	ld	ra,8(sp)
   105c6:	6402                	ld	s0,0(sp)
   105c8:	0141                	addi	sp,sp,16
   105ca:	8082                	ret

00000000000105cc <frame_dummy>:
   105cc:	000497b7          	lui	a5,0x49
   105d0:	7d078793          	addi	a5,a5,2000 # 497d0 <__register_frame_info>
   105d4:	c385                	beqz	a5,105f4 <frame_dummy+0x28>
   105d6:	0006e5b7          	lui	a1,0x6e
   105da:	00066537          	lui	a0,0x66
   105de:	1141                	addi	sp,sp,-16
   105e0:	1e058593          	addi	a1,a1,480 # 6e1e0 <object.0>
   105e4:	cf050513          	addi	a0,a0,-784 # 65cf0 <__EH_FRAME_BEGIN__>
   105e8:	e406                	sd	ra,8(sp)
   105ea:	1e6390ef          	jal	497d0 <__register_frame_info>
   105ee:	60a2                	ld	ra,8(sp)
   105f0:	0141                	addi	sp,sp,16
   105f2:	bf9d                	j	10568 <register_tm_clones>
   105f4:	bf95                	j	10568 <register_tm_clones>

00000000000105f6 <main>:
   105f6:	7179                	addi	sp,sp,-48
   105f8:	f406                	sd	ra,40(sp)
   105fa:	f022                	sd	s0,32(sp)
   105fc:	1800                	addi	s0,sp,48
   105fe:	87aa                	mv	a5,a0
   10600:	fcb43823          	sd	a1,-48(s0)
   10604:	fcf42e23          	sw	a5,-36(s0)
   10608:	4795                	li	a5,5
   1060a:	fef42623          	sw	a5,-20(s0)
   1060e:	4785                	li	a5,1
   10610:	fef42223          	sw	a5,-28(s0)
   10614:	fe042423          	sw	zero,-24(s0)
   10618:	a081                	j	10658 <main+0x62>
   1061a:	fec42783          	lw	a5,-20(s0)
   1061e:	873e                	mv	a4,a5
   10620:	fe442783          	lw	a5,-28(s0)
   10624:	02f707bb          	mulw	a5,a4,a5
   10628:	0007869b          	sext.w	a3,a5
   1062c:	fe442703          	lw	a4,-28(s0)
   10630:	fec42783          	lw	a5,-20(s0)
   10634:	863a                	mv	a2,a4
   10636:	85be                	mv	a1,a5
   10638:	0004b7b7          	lui	a5,0x4b
   1063c:	9e878513          	addi	a0,a5,-1560 # 4a9e8 <_IO_stdin_used+0x8>
   10640:	1b5000ef          	jal	10ff4 <_IO_printf>
   10644:	fec42783          	lw	a5,-20(s0)
   10648:	2785                	addiw	a5,a5,1
   1064a:	fef42623          	sw	a5,-20(s0)
   1064e:	fe842783          	lw	a5,-24(s0)
   10652:	2785                	addiw	a5,a5,1
   10654:	fef42423          	sw	a5,-24(s0)
   10658:	fe842783          	lw	a5,-24(s0)
   1065c:	0007871b          	sext.w	a4,a5
   10660:	6789                	lui	a5,0x2
   10662:	70f78793          	addi	a5,a5,1807 # 270f <__libc_dlerror_result+0x26bf>
   10666:	fae7dae3          	bge	a5,a4,1061a <main+0x24>
   1066a:	4781                	li	a5,0
   1066c:	853e                	mv	a0,a5
   1066e:	70a2                	ld	ra,40(sp)
   10670:	7402                	ld	s0,32(sp)
   10672:	6145                	addi	sp,sp,48
   10674:	8082                	ret

0000000000010676 <call_fini>:
   10676:	1101                	addi	sp,sp,-32
   10678:	e822                	sd	s0,16(sp)
   1067a:	00059797          	auipc	a5,0x59
   1067e:	e3678793          	addi	a5,a5,-458 # 694b0 <__do_global_dtors_aux_fini_array_entry>
   10682:	00059417          	auipc	s0,0x59
   10686:	e3640413          	addi	s0,s0,-458 # 694b8 <step4_jumps.0>
   1068a:	8c1d                	sub	s0,s0,a5
   1068c:	e426                	sd	s1,8(sp)
   1068e:	ec06                	sd	ra,24(sp)
   10690:	40345493          	srai	s1,s0,0x3
   10694:	c881                	beqz	s1,106a4 <call_fini+0x2e>
   10696:	1461                	addi	s0,s0,-8
   10698:	943e                	add	s0,s0,a5
   1069a:	601c                	ld	a5,0(s0)
   1069c:	14fd                	addi	s1,s1,-1
   1069e:	1461                	addi	s0,s0,-8
   106a0:	9782                	jalr	a5
   106a2:	fce5                	bnez	s1,1069a <call_fini+0x24>
   106a4:	60e2                	ld	ra,24(sp)
   106a6:	6442                	ld	s0,16(sp)
   106a8:	64a2                	ld	s1,8(sp)
   106aa:	6105                	addi	sp,sp,32
   106ac:	8082                	ret

00000000000106ae <__libc_start_call_main>:
   106ae:	7169                	addi	sp,sp,-304
   106b0:	87aa                	mv	a5,a0
   106b2:	1028                	addi	a0,sp,40
   106b4:	f606                	sd	ra,296(sp)
   106b6:	e43e                	sd	a5,8(sp)
   106b8:	e82e                	sd	a1,16(sp)
   106ba:	ec32                	sd	a2,24(sp)
   106bc:	508000ef          	jal	10bc4 <_setjmp>
   106c0:	e505                	bnez	a0,106e8 <__libc_start_call_main+0x3a>
   106c2:	9a023683          	ld	a3,-1632(tp) # fffffffffffff9a0 <__BSS_END__+0xfffffffffff8c328>
   106c6:	99823703          	ld	a4,-1640(tp) # fffffffffffff998 <__BSS_END__+0xfffffffffff8c320>
   106ca:	65e2                	ld	a1,24(sp)
   106cc:	6542                	ld	a0,16(sp)
   106ce:	67a2                	ld	a5,8(sp)
   106d0:	e63a                	sd	a4,264(sp)
   106d2:	e236                	sd	a3,256(sp)
   106d4:	1038                	addi	a4,sp,40
   106d6:	9ae23023          	sd	a4,-1632(tp) # fffffffffffff9a0 <__BSS_END__+0xfffffffffff8c328>
   106da:	00063617          	auipc	a2,0x63
   106de:	81663603          	ld	a2,-2026(a2) # 72ef0 <_environ>
   106e2:	9782                	jalr	a5
   106e4:	0fd000ef          	jal	10fe0 <exit>
   106e8:	2d0040ef          	jal	149b8 <__nptl_deallocate_tsd>
   106ec:	0005c717          	auipc	a4,0x5c
   106f0:	93470713          	addi	a4,a4,-1740 # 6c020 <__nptl_nthreads>
   106f4:	56fd                	li	a3,-1
   106f6:	00d727af          	amoadd.w	a5,a3,(a4)
   106fa:	37fd                	addiw	a5,a5,-1
   106fc:	cf81                	beqz	a5,10714 <__libc_start_call_main+0x66>
   106fe:	05d00893          	li	a7,93
   10702:	4501                	li	a0,0
   10704:	00000073          	ecall
   10708:	05d00893          	li	a7,93
   1070c:	4501                	li	a0,0
   1070e:	00000073          	ecall
   10712:	b7f5                	j	106fe <__libc_start_call_main+0x50>
   10714:	4501                	li	a0,0
   10716:	b7f9                	j	106e4 <__libc_start_call_main+0x36>

0000000000010718 <__libc_start_main>:
   10718:	00158713          	addi	a4,a1,1
   1071c:	7159                	addi	sp,sp,-112
   1071e:	070e                	slli	a4,a4,0x3
   10720:	eca6                	sd	s1,88(sp)
   10722:	e8ca                	sd	s2,80(sp)
   10724:	e0d2                	sd	s4,64(sp)
   10726:	fc56                	sd	s5,56(sp)
   10728:	f85a                	sd	s6,48(sp)
   1072a:	f486                	sd	ra,104(sp)
   1072c:	f0a2                	sd	s0,96(sp)
   1072e:	e4ce                	sd	s3,72(sp)
   10730:	f45e                	sd	s7,40(sp)
   10732:	f062                	sd	s8,32(sp)
   10734:	ec66                	sd	s9,24(sp)
   10736:	e86a                	sd	s10,16(sp)
   10738:	9732                	add	a4,a4,a2
   1073a:	00062a17          	auipc	s4,0x62
   1073e:	7b6a0a13          	addi	s4,s4,1974 # 72ef0 <_environ>
   10742:	8abe                	mv	s5,a5
   10744:	84ae                	mv	s1,a1
   10746:	8932                	mv	s2,a2
   10748:	8b2a                	mv	s6,a0
   1074a:	00ea3023          	sd	a4,0(s4)
   1074e:	0005b797          	auipc	a5,0x5b
   10752:	4507b123          	sd	a6,1090(a5) # 6bb90 <__libc_stack_end>
   10756:	6314                	ld	a3,0(a4)
   10758:	0721                	addi	a4,a4,8
   1075a:	fef5                	bnez	a3,10756 <__libc_start_main+0x3e>
   1075c:	853a                	mv	a0,a4
   1075e:	63c0b0ef          	jal	1bd9a <_dl_aux_init>
   10762:	000a3503          	ld	a0,0(s4)
   10766:	0005db97          	auipc	s7,0x5d
   1076a:	702bbb83          	ld	s7,1794(s7) # 6de68 <_GLOBAL_OFFSET_TABLE_+0xe8>
   1076e:	0005d417          	auipc	s0,0x5d
   10772:	77243403          	ld	s0,1906(s0) # 6dee0 <_GLOBAL_OFFSET_TABLE_+0x160>
   10776:	0160b0ef          	jal	1b78c <__tunables_init>
   1077a:	05747363          	bgeu	s0,s7,107c0 <__libc_start_main+0xa8>
   1077e:	59fd                	li	s3,-1
   10780:	0209d993          	srli	s3,s3,0x20
   10784:	03a00c13          	li	s8,58
   10788:	00062c97          	auipc	s9,0x62
   1078c:	7c0c8c93          	addi	s9,s9,1984 # 72f48 <_dl_hwcap>
   10790:	a819                	j	107a6 <__libc_start_main+0x8e>
   10792:	681c                	ld	a5,16(s0)
   10794:	000cb503          	ld	a0,0(s9)
   10798:	4581                	li	a1,0
   1079a:	0461                	addi	s0,s0,24
   1079c:	9782                	jalr	a5
   1079e:	00ad3023          	sd	a0,0(s10)
   107a2:	01747f63          	bgeu	s0,s7,107c0 <__libc_start_main+0xa8>
   107a6:	6418                	ld	a4,8(s0)
   107a8:	00043d03          	ld	s10,0(s0)
   107ac:	01377733          	and	a4,a4,s3
   107b0:	ff8701e3          	beq	a4,s8,10792 <__libc_start_main+0x7a>
   107b4:	0003a517          	auipc	a0,0x3a
   107b8:	24450513          	addi	a0,a0,580 # 4a9f8 <_IO_stdin_used+0x18>
   107bc:	074040ef          	jal	14830 <__libc_fatal>
   107c0:	212000ef          	jal	109d2 <__libc_setup_tls>
   107c4:	0005b997          	auipc	s3,0x5b
   107c8:	39c98993          	addi	s3,s3,924 # 6bb60 <_dl_random>
   107cc:	0009b783          	ld	a5,0(s3)
   107d0:	0005a417          	auipc	s0,0x5a
   107d4:	6d040413          	addi	s0,s0,1744 # 6aea0 <__stack_chk_guard>
   107d8:	0005d817          	auipc	a6,0x5d
   107dc:	7b883803          	ld	a6,1976(a6) # 6df90 <_GLOBAL_OFFSET_TABLE_+0x210>
   107e0:	0017c883          	lbu	a7,1(a5)
   107e4:	0007c703          	lbu	a4,0(a5)
   107e8:	0027c503          	lbu	a0,2(a5)
   107ec:	0037c583          	lbu	a1,3(a5)
   107f0:	0047c603          	lbu	a2,4(a5)
   107f4:	08a2                	slli	a7,a7,0x8
   107f6:	0057c683          	lbu	a3,5(a5)
   107fa:	00e8e8b3          	or	a7,a7,a4
   107fe:	0542                	slli	a0,a0,0x10
   10800:	0067c703          	lbu	a4,6(a5)
   10804:	01156533          	or	a0,a0,a7
   10808:	05e2                	slli	a1,a1,0x18
   1080a:	0077c783          	lbu	a5,7(a5)
   1080e:	8dc9                	or	a1,a1,a0
   10810:	1602                	slli	a2,a2,0x20
   10812:	8e4d                	or	a2,a2,a1
   10814:	16a2                	slli	a3,a3,0x28
   10816:	8ed1                	or	a3,a3,a2
   10818:	1742                	slli	a4,a4,0x30
   1081a:	8f55                	or	a4,a4,a3
   1081c:	17e2                	slli	a5,a5,0x38
   1081e:	8fd9                	or	a5,a5,a4
   10820:	f007f793          	andi	a5,a5,-256
   10824:	e01c                	sd	a5,0(s0)
   10826:	00080363          	beqz	a6,1082c <__libc_start_main+0x114>
   1082a:	9802                	jalr	a6
   1082c:	0009b783          	ld	a5,0(s3)
   10830:	0087c303          	lbu	t1,8(a5)
   10834:	0097c883          	lbu	a7,9(a5)
   10838:	00a7c803          	lbu	a6,10(a5)
   1083c:	00b7c503          	lbu	a0,11(a5)
   10840:	00c7c583          	lbu	a1,12(a5)
   10844:	00d7c603          	lbu	a2,13(a5)
   10848:	00e7c683          	lbu	a3,14(a5)
   1084c:	00f7c703          	lbu	a4,15(a5)
   10850:	00610423          	sb	t1,8(sp)
   10854:	011104a3          	sb	a7,9(sp)
   10858:	01010523          	sb	a6,10(sp)
   1085c:	00a105a3          	sb	a0,11(sp)
   10860:	00b10623          	sb	a1,12(sp)
   10864:	00c106a3          	sb	a2,13(sp)
   10868:	00d10723          	sb	a3,14(sp)
   1086c:	00e107a3          	sb	a4,15(sp)
   10870:	67a2                	ld	a5,8(sp)
   10872:	e41c                	sd	a5,8(s0)
   10874:	000a8763          	beqz	s5,10882 <__libc_start_main+0x16a>
   10878:	4601                	li	a2,0
   1087a:	4581                	li	a1,0
   1087c:	8556                	mv	a0,s5
   1087e:	58c000ef          	jal	10e0a <__cxa_atexit>
   10882:	4505                	li	a0,1
   10884:	4c50b0ef          	jal	1c548 <__libc_early_init>
   10888:	000a3603          	ld	a2,0(s4)
   1088c:	85ca                	mv	a1,s2
   1088e:	8526                	mv	a0,s1
   10890:	54d0b0ef          	jal	1c5dc <__libc_init_first>
   10894:	4601                	li	a2,0
   10896:	4581                	li	a1,0
   10898:	00000517          	auipc	a0,0x0
   1089c:	dde50513          	addi	a0,a0,-546 # 10676 <call_fini>
   108a0:	56a000ef          	jal	10e0a <__cxa_atexit>
   108a4:	0005c797          	auipc	a5,0x5c
   108a8:	6bc7a783          	lw	a5,1724(a5) # 6cf60 <__libc_enable_secure>
   108ac:	efa5                	bnez	a5,10924 <__libc_start_main+0x20c>
   108ae:	00059797          	auipc	a5,0x59
   108b2:	bfa78793          	addi	a5,a5,-1030 # 694a8 <__frame_dummy_init_array_entry>
   108b6:	00059417          	auipc	s0,0x59
   108ba:	bea40413          	addi	s0,s0,-1046 # 694a0 <__preinit_array_start>
   108be:	40878ab3          	sub	s5,a5,s0
   108c2:	000a3a03          	ld	s4,0(s4)
   108c6:	403ada93          	srai	s5,s5,0x3
   108ca:	00878c63          	beq	a5,s0,108e2 <__libc_start_main+0x1ca>
   108ce:	4981                	li	s3,0
   108d0:	601c                	ld	a5,0(s0)
   108d2:	8652                	mv	a2,s4
   108d4:	85ca                	mv	a1,s2
   108d6:	8526                	mv	a0,s1
   108d8:	0985                	addi	s3,s3,1
   108da:	9782                	jalr	a5
   108dc:	0421                	addi	s0,s0,8
   108de:	ff59e9e3          	bltu	s3,s5,108d0 <__libc_start_main+0x1b8>
   108e2:	00059797          	auipc	a5,0x59
   108e6:	bce78793          	addi	a5,a5,-1074 # 694b0 <__do_global_dtors_aux_fini_array_entry>
   108ea:	00059417          	auipc	s0,0x59
   108ee:	bbe40413          	addi	s0,s0,-1090 # 694a8 <__frame_dummy_init_array_entry>
   108f2:	40878ab3          	sub	s5,a5,s0
   108f6:	403ada93          	srai	s5,s5,0x3
   108fa:	00878c63          	beq	a5,s0,10912 <__libc_start_main+0x1fa>
   108fe:	4981                	li	s3,0
   10900:	601c                	ld	a5,0(s0)
   10902:	8652                	mv	a2,s4
   10904:	85ca                	mv	a1,s2
   10906:	8526                	mv	a0,s1
   10908:	0985                	addi	s3,s3,1
   1090a:	9782                	jalr	a5
   1090c:	0421                	addi	s0,s0,8
   1090e:	ff59e9e3          	bltu	s3,s5,10900 <__libc_start_main+0x1e8>
   10912:	4581                	li	a1,0
   10914:	4501                	li	a0,0
   10916:	4fa0a0ef          	jal	1ae10 <_dl_debug_initialize>
   1091a:	864a                	mv	a2,s2
   1091c:	85a6                	mv	a1,s1
   1091e:	855a                	mv	a0,s6
   10920:	d8fff0ef          	jal	106ae <__libc_start_call_main>
   10924:	088000ef          	jal	109ac <__libc_check_standard_fds>
   10928:	b759                	j	108ae <__libc_start_main+0x196>

000000000001092a <check_one_fd>:
   1092a:	7135                	addi	sp,sp,-160
   1092c:	e922                	sd	s0,144(sp)
   1092e:	842e                	mv	s0,a1
   10930:	4585                	li	a1,1
   10932:	e526                	sd	s1,136(sp)
   10934:	ed06                	sd	ra,152(sp)
   10936:	e14a                	sd	s2,128(sp)
   10938:	84aa                	mv	s1,a0
   1093a:	05b090ef          	jal	1a194 <__fcntl64_nocancel>
   1093e:	57fd                	li	a5,-1
   10940:	00f50863          	beq	a0,a5,10950 <check_one_fd+0x26>
   10944:	60ea                	ld	ra,152(sp)
   10946:	644a                	ld	s0,144(sp)
   10948:	64aa                	ld	s1,136(sp)
   1094a:	690a                	ld	s2,128(sp)
   1094c:	610d                	addi	sp,sp,160
   1094e:	8082                	ret
   10950:	0005d797          	auipc	a5,0x5d
   10954:	6587b783          	ld	a5,1624(a5) # 6dfa8 <_GLOBAL_OFFSET_TABLE_+0x228>
   10958:	4725                	li	a4,9
   1095a:	9792                	add	a5,a5,tp
   1095c:	439c                	lw	a5,0(a5)
   1095e:	fee793e3          	bne	a5,a4,10944 <check_one_fd+0x1a>
   10962:	000207b7          	lui	a5,0x20
   10966:	02f41c63          	bne	s0,a5,1099e <check_one_fd+0x74>
   1096a:	10300913          	li	s2,259
   1096e:	0003a517          	auipc	a0,0x3a
   10972:	0ca50513          	addi	a0,a0,202 # 4aa38 <_IO_stdin_used+0x58>
   10976:	4601                	li	a2,0
   10978:	85a2                	mv	a1,s0
   1097a:	0f7090ef          	jal	1a270 <__open64_nocancel>
   1097e:	00a49f63          	bne	s1,a0,1099c <check_one_fd+0x72>
   10982:	858a                	mv	a1,sp
   10984:	79c090ef          	jal	1a120 <__fstat>
   10988:	e911                	bnez	a0,1099c <check_one_fd+0x72>
   1098a:	47c2                	lw	a5,16(sp)
   1098c:	66bd                	lui	a3,0xf
   1098e:	6709                	lui	a4,0x2
   10990:	8ff5                	and	a5,a5,a3
   10992:	00e79563          	bne	a5,a4,1099c <check_one_fd+0x72>
   10996:	7782                	ld	a5,32(sp)
   10998:	fb2786e3          	beq	a5,s2,10944 <check_one_fd+0x1a>
   1099c:	9002                	ebreak
   1099e:	10700913          	li	s2,263
   109a2:	0003a517          	auipc	a0,0x3a
   109a6:	08650513          	addi	a0,a0,134 # 4aa28 <_IO_stdin_used+0x48>
   109aa:	b7f1                	j	10976 <check_one_fd+0x4c>

00000000000109ac <__libc_check_standard_fds>:
   109ac:	000205b7          	lui	a1,0x20
   109b0:	1141                	addi	sp,sp,-16
   109b2:	0585                	addi	a1,a1,1 # 20001 <__gconv_transform_internal_utf8+0x257>
   109b4:	4501                	li	a0,0
   109b6:	e406                	sd	ra,8(sp)
   109b8:	f73ff0ef          	jal	1092a <check_one_fd>
   109bc:	000205b7          	lui	a1,0x20
   109c0:	4505                	li	a0,1
   109c2:	f69ff0ef          	jal	1092a <check_one_fd>
   109c6:	60a2                	ld	ra,8(sp)
   109c8:	000205b7          	lui	a1,0x20
   109cc:	4509                	li	a0,2
   109ce:	0141                	addi	sp,sp,16
   109d0:	bfa9                	j	1092a <check_one_fd>

00000000000109d2 <__libc_setup_tls>:
   109d2:	7119                	addi	sp,sp,-128
   109d4:	0005d797          	auipc	a5,0x5d
   109d8:	7f47b783          	ld	a5,2036(a5) # 6e1c8 <_GLOBAL_OFFSET_TABLE_+0x448>
   109dc:	f06a                	sd	s10,32(sp)
   109de:	fc86                	sd	ra,120(sp)
   109e0:	0007bd03          	ld	s10,0(a5)
   109e4:	f8a2                	sd	s0,112(sp)
   109e6:	f4a6                	sd	s1,104(sp)
   109e8:	f0ca                	sd	s2,96(sp)
   109ea:	ecce                	sd	s3,88(sp)
   109ec:	e8d2                	sd	s4,80(sp)
   109ee:	e4d6                	sd	s5,72(sp)
   109f0:	e0da                	sd	s6,64(sp)
   109f2:	fc5e                	sd	s7,56(sp)
   109f4:	f862                	sd	s8,48(sp)
   109f6:	f466                	sd	s9,40(sp)
   109f8:	ec6e                	sd	s11,24(sp)
   109fa:	4050a0ef          	jal	1b5fe <__tls_pre_init_tp>
   109fe:	0005d797          	auipc	a5,0x5d
   10a02:	71a7b783          	ld	a5,1818(a5) # 6e118 <_GLOBAL_OFFSET_TABLE_+0x398>
   10a06:	6398                	ld	a4,0(a5)
   10a08:	0005d797          	auipc	a5,0x5d
   10a0c:	6007b783          	ld	a5,1536(a5) # 6e008 <_GLOBAL_OFFSET_TABLE_+0x288>
   10a10:	639c                	ld	a5,0(a5)
   10a12:	00371693          	slli	a3,a4,0x3
   10a16:	8e99                	sub	a3,a3,a4
   10a18:	068e                	slli	a3,a3,0x3
   10a1a:	96be                	add	a3,a3,a5
   10a1c:	12d7ff63          	bgeu	a5,a3,10b5a <__libc_setup_tls+0x188>
   10a20:	461d                	li	a2,7
   10a22:	a029                	j	10a2c <__libc_setup_tls+0x5a>
   10a24:	03878793          	addi	a5,a5,56
   10a28:	12d7f963          	bgeu	a5,a3,10b5a <__libc_setup_tls+0x188>
   10a2c:	4398                	lw	a4,0(a5)
   10a2e:	fec71be3          	bne	a4,a2,10a24 <__libc_setup_tls+0x52>
   10a32:	000d3a03          	ld	s4,0(s10)
   10a36:	6b90                	ld	a2,16(a5)
   10a38:	0307bc83          	ld	s9,48(a5)
   10a3c:	02000693          	li	a3,32
   10a40:	0287ba83          	ld	s5,40(a5)
   10a44:	0207bb03          	ld	s6,32(a5)
   10a48:	9a32                	add	s4,s4,a2
   10a4a:	89e6                	mv	s3,s9
   10a4c:	10dce163          	bltu	s9,a3,10b4e <__libc_setup_tls+0x17c>
   10a50:	8966                	mv	s2,s9
   10a52:	0e0c8c63          	beqz	s9,10b4a <__libc_setup_tls+0x178>
   10a56:	fff98793          	addi	a5,s3,-1
   10a5a:	e03e                	sd	a5,0(sp)
   10a5c:	4501                	li	a0,0
   10a5e:	413007b3          	neg	a5,s3
   10a62:	e43e                	sd	a5,8(sp)
   10a64:	41a0a0ef          	jal	1ae7e <_dl_tls_static_surplus_init>
   10a68:	120c8d63          	beqz	s9,10ba2 <__libc_setup_tls+0x1d0>
   10a6c:	fffc8493          	addi	s1,s9,-1
   10a70:	0394d6b3          	divu	a3,s1,s9
   10a74:	94d6                	add	s1,s1,s5
   10a76:	03268c33          	mul	s8,a3,s2
   10a7a:	8be2                	mv	s7,s8
   10a7c:	84018d93          	addi	s11,gp,-1984 # 6e210 <_dl_tls_static_surplus>
   10a80:	000db503          	ld	a0,0(s11)
   10a84:	76050513          	addi	a0,a0,1888
   10a88:	9556                	add	a0,a0,s5
   10a8a:	954e                	add	a0,a0,s3
   10a8c:	9562                	add	a0,a0,s8
   10a8e:	2560b0ef          	jal	1bce4 <_dl_early_allocate>
   10a92:	842a                	mv	s0,a0
   10a94:	0e050563          	beqz	a0,10b7e <__libc_setup_tls+0x1ac>
   10a98:	6782                	ld	a5,0(sp)
   10a9a:	76040413          	addi	s0,s0,1888
   10a9e:	865a                	mv	a2,s6
   10aa0:	943e                	add	s0,s0,a5
   10aa2:	67a2                	ld	a5,8(sp)
   10aa4:	85d2                	mv	a1,s4
   10aa6:	457d3c23          	sd	s7,1112(s10)
   10aaa:	8c7d                	and	s0,s0,a5
   10aac:	01840533          	add	a0,s0,s8
   10ab0:	03e00793          	li	a5,62
   10ab4:	00fdb423          	sd	a5,8(s11)
   10ab8:	02adb423          	sd	a0,40(s11)
   10abc:	8601b823          	sd	zero,-1936(gp) # 6e240 <_dl_static_dtv+0x28>
   10ac0:	7da080ef          	jal	1929a <memcpy>
   10ac4:	85818793          	addi	a5,gp,-1960 # 6e228 <_dl_static_dtv+0x10>
   10ac8:	fef43823          	sd	a5,-16(s0)
   10acc:	8222                	mv	tp,s0
   10ace:	3570a0ef          	jal	1b624 <__tls_init_tp>
   10ad2:	0324f933          	remu	s2,s1,s2
   10ad6:	000db783          	ld	a5,0(s11)
   10ada:	70e6                	ld	ra,120(sp)
   10adc:	7446                	ld	s0,112(sp)
   10ade:	07fd                	addi	a5,a5,31
   10ae0:	04000713          	li	a4,64
   10ae4:	0005e617          	auipc	a2,0x5e
   10ae8:	72c60613          	addi	a2,a2,1836 # 6f210 <__pthread_keys+0x378>
   10aec:	4585                	li	a1,1
   10aee:	40edb423          	sd	a4,1032(s11)
   10af2:	c4818713          	addi	a4,gp,-952 # 6e618 <static_slotinfo>
   10af6:	459d3423          	sd	s9,1096(s10)
   10afa:	455d3023          	sd	s5,1088(s10)
   10afe:	434d3823          	sd	s4,1072(s10)
   10b02:	436d3c23          	sd	s6,1080(s10)
   10b06:	43adb823          	sd	s10,1072(s11)
   10b0a:	46bd3023          	sd	a1,1120(s10)
   10b0e:	83363c23          	sd	s3,-1992(a2)
   10b12:	80b63c23          	sd	a1,-2024(a2)
   10b16:	82e63023          	sd	a4,-2016(a2)
   10b1a:	84b63023          	sd	a1,-1984(a2)
   10b1e:	69e6                	ld	s3,88(sp)
   10b20:	6a46                	ld	s4,80(sp)
   10b22:	6aa6                	ld	s5,72(sp)
   10b24:	6b06                	ld	s6,64(sp)
   10b26:	7be2                	ld	s7,56(sp)
   10b28:	7ca2                	ld	s9,40(sp)
   10b2a:	7d02                	ld	s10,32(sp)
   10b2c:	6de2                	ld	s11,24(sp)
   10b2e:	412484b3          	sub	s1,s1,s2
   10b32:	94e2                	add	s1,s1,s8
   10b34:	97a6                	add	a5,a5,s1
   10b36:	9b81                	andi	a5,a5,-32
   10b38:	82963823          	sd	s1,-2000(a2)
   10b3c:	82f63423          	sd	a5,-2008(a2)
   10b40:	74a6                	ld	s1,104(sp)
   10b42:	7906                	ld	s2,96(sp)
   10b44:	7c42                	ld	s8,48(sp)
   10b46:	6109                	addi	sp,sp,128
   10b48:	8082                	ret
   10b4a:	4905                	li	s2,1
   10b4c:	b729                	j	10a56 <__libc_setup_tls+0x84>
   10b4e:	02000993          	li	s3,32
   10b52:	8966                	mv	s2,s9
   10b54:	f00c91e3          	bnez	s9,10a56 <__libc_setup_tls+0x84>
   10b58:	bfcd                	j	10b4a <__libc_setup_tls+0x178>
   10b5a:	4501                	li	a0,0
   10b5c:	3220a0ef          	jal	1ae7e <_dl_tls_static_surplus_init>
   10b60:	47fd                	li	a5,31
   10b62:	e03e                	sd	a5,0(sp)
   10b64:	5781                	li	a5,-32
   10b66:	4481                	li	s1,0
   10b68:	4b81                	li	s7,0
   10b6a:	e43e                	sd	a5,8(sp)
   10b6c:	4c01                	li	s8,0
   10b6e:	4905                	li	s2,1
   10b70:	02000993          	li	s3,32
   10b74:	4c81                	li	s9,0
   10b76:	4a01                	li	s4,0
   10b78:	4b01                	li	s6,0
   10b7a:	4a81                	li	s5,0
   10b7c:	b701                	j	10a7c <__libc_setup_tls+0xaa>
   10b7e:	04000893          	li	a7,64
   10b82:	4509                	li	a0,2
   10b84:	0003a597          	auipc	a1,0x3a
   10b88:	ec458593          	addi	a1,a1,-316 # 4aa48 <_IO_stdin_used+0x68>
   10b8c:	02d00613          	li	a2,45
   10b90:	00000073          	ecall
   10b94:	05e00893          	li	a7,94
   10b98:	07f00513          	li	a0,127
   10b9c:	00000073          	ecall
   10ba0:	bde5                	j	10a98 <__libc_setup_tls+0xc6>
   10ba2:	84d6                	mv	s1,s5
   10ba4:	4c01                	li	s8,0
   10ba6:	4b81                	li	s7,0
   10ba8:	4905                	li	s2,1
   10baa:	02000993          	li	s3,32
   10bae:	b5f9                	j	10a7c <__libc_setup_tls+0xaa>

0000000000010bb0 <__tls_get_addr>:
   10bb0:	ff023703          	ld	a4,-16(tp) # fffffffffffffff0 <__BSS_END__+0xfffffffffff8c978>
   10bb4:	651c                	ld	a5,8(a0)
   10bb6:	6b08                	ld	a0,16(a4)
   10bb8:	6705                	lui	a4,0x1
   10bba:	80070713          	addi	a4,a4,-2048 # 800 <__libc_dlerror_result+0x7b0>
   10bbe:	97ba                	add	a5,a5,a4
   10bc0:	953e                	add	a0,a0,a5
   10bc2:	8082                	ret

0000000000010bc4 <_setjmp>:
   10bc4:	4581                	li	a1,0
   10bc6:	a019                	j	10bcc <__sigsetjmp>

0000000000010bc8 <setjmp>:
   10bc8:	4585                	li	a1,1
   10bca:	0001                	nop

0000000000010bcc <__sigsetjmp>:
   10bcc:	00153023          	sd	ra,0(a0)
   10bd0:	e500                	sd	s0,8(a0)
   10bd2:	e904                	sd	s1,16(a0)
   10bd4:	01253c23          	sd	s2,24(a0)
   10bd8:	03353023          	sd	s3,32(a0)
   10bdc:	03453423          	sd	s4,40(a0)
   10be0:	03553823          	sd	s5,48(a0)
   10be4:	03653c23          	sd	s6,56(a0)
   10be8:	05753023          	sd	s7,64(a0)
   10bec:	05853423          	sd	s8,72(a0)
   10bf0:	05953823          	sd	s9,80(a0)
   10bf4:	05a53c23          	sd	s10,88(a0)
   10bf8:	07b53023          	sd	s11,96(a0)
   10bfc:	06253423          	sd	sp,104(a0)
   10c00:	b920                	fsd	fs0,112(a0)
   10c02:	bd24                	fsd	fs1,120(a0)
   10c04:	09253027          	fsd	fs2,128(a0)
   10c08:	09353427          	fsd	fs3,136(a0)
   10c0c:	09453827          	fsd	fs4,144(a0)
   10c10:	09553c27          	fsd	fs5,152(a0)
   10c14:	0b653027          	fsd	fs6,160(a0)
   10c18:	0b753427          	fsd	fs7,168(a0)
   10c1c:	0b853827          	fsd	fs8,176(a0)
   10c20:	0b953c27          	fsd	fs9,184(a0)
   10c24:	0da53027          	fsd	fs10,192(a0)
   10c28:	0db53427          	fsd	fs11,200(a0)
   10c2c:	0040006f          	j	10c30 <__sigjmp_save>

0000000000010c30 <__sigjmp_save>:
   10c30:	1141                	addi	sp,sp,-16
   10c32:	e022                	sd	s0,0(sp)
   10c34:	e406                	sd	ra,8(sp)
   10c36:	842a                	mv	s0,a0
   10c38:	e981                	bnez	a1,10c48 <__sigjmp_save+0x18>
   10c3a:	60a2                	ld	ra,8(sp)
   10c3c:	0cb42823          	sw	a1,208(s0)
   10c40:	6402                	ld	s0,0(sp)
   10c42:	4501                	li	a0,0
   10c44:	0141                	addi	sp,sp,16
   10c46:	8082                	ret
   10c48:	0d850613          	addi	a2,a0,216
   10c4c:	4581                	li	a1,0
   10c4e:	4501                	li	a0,0
   10c50:	016000ef          	jal	10c66 <__sigprocmask>
   10c54:	00153593          	seqz	a1,a0
   10c58:	60a2                	ld	ra,8(sp)
   10c5a:	0cb42823          	sw	a1,208(s0)
   10c5e:	6402                	ld	s0,0(sp)
   10c60:	4501                	li	a0,0
   10c62:	0141                	addi	sp,sp,16
   10c64:	8082                	ret

0000000000010c66 <__sigprocmask>:
   10c66:	1141                	addi	sp,sp,-16
   10c68:	e406                	sd	ra,8(sp)
   10c6a:	625030ef          	jal	14a8e <__pthread_sigmask>
   10c6e:	e501                	bnez	a0,10c76 <__sigprocmask+0x10>
   10c70:	60a2                	ld	ra,8(sp)
   10c72:	0141                	addi	sp,sp,16
   10c74:	8082                	ret
   10c76:	0005d797          	auipc	a5,0x5d
   10c7a:	3327b783          	ld	a5,818(a5) # 6dfa8 <_GLOBAL_OFFSET_TABLE_+0x228>
   10c7e:	9792                	add	a5,a5,tp
   10c80:	c388                	sw	a0,0(a5)
   10c82:	557d                	li	a0,-1
   10c84:	b7f5                	j	10c70 <__sigprocmask+0xa>

0000000000010c86 <__new_exitfn>:
   10c86:	4c01c783          	lbu	a5,1216(gp) # 6ee90 <__exit_funcs_done>
   10c8a:	ebdd                	bnez	a5,10d40 <__new_exitfn+0xba>
   10c8c:	1101                	addi	sp,sp,-32
   10c8e:	e426                	sd	s1,8(sp)
   10c90:	6104                	ld	s1,0(a0)
   10c92:	e822                	sd	s0,16(sp)
   10c94:	ec06                	sd	ra,24(sp)
   10c96:	842a                	mv	s0,a0
   10c98:	c4c1                	beqz	s1,10d20 <__new_exitfn+0x9a>
   10c9a:	85a6                	mv	a1,s1
   10c9c:	4801                	li	a6,0
   10c9e:	6598                	ld	a4,8(a1)
   10ca0:	00571793          	slli	a5,a4,0x5
   10ca4:	97ae                	add	a5,a5,a1
   10ca6:	cb09                	beqz	a4,10cb8 <__new_exitfn+0x32>
   10ca8:	ff07b683          	ld	a3,-16(a5)
   10cac:	fff70613          	addi	a2,a4,-1
   10cb0:	1781                	addi	a5,a5,-32
   10cb2:	ea91                	bnez	a3,10cc6 <__new_exitfn+0x40>
   10cb4:	8732                	mv	a4,a2
   10cb6:	fb6d                	bnez	a4,10ca8 <__new_exitfn+0x22>
   10cb8:	619c                	ld	a5,0(a1)
   10cba:	0005b423          	sd	zero,8(a1)
   10cbe:	882e                	mv	a6,a1
   10cc0:	c7a9                	beqz	a5,10d0a <__new_exitfn+0x84>
   10cc2:	85be                	mv	a1,a5
   10cc4:	bfe9                	j	10c9e <__new_exitfn+0x18>
   10cc6:	02000793          	li	a5,32
   10cca:	02f70463          	beq	a4,a5,10cf2 <__new_exitfn+0x6c>
   10cce:	00571513          	slli	a0,a4,0x5
   10cd2:	0541                	addi	a0,a0,16
   10cd4:	0705                	addi	a4,a4,1
   10cd6:	952e                	add	a0,a0,a1
   10cd8:	e598                	sd	a4,8(a1)
   10cda:	0a018713          	addi	a4,gp,160 # 6ea70 <__new_exitfn_called>
   10cde:	631c                	ld	a5,0(a4)
   10ce0:	60e2                	ld	ra,24(sp)
   10ce2:	6442                	ld	s0,16(sp)
   10ce4:	4685                	li	a3,1
   10ce6:	e114                	sd	a3,0(a0)
   10ce8:	0785                	addi	a5,a5,1
   10cea:	e31c                	sd	a5,0(a4)
   10cec:	64a2                	ld	s1,8(sp)
   10cee:	6105                	addi	sp,sp,32
   10cf0:	8082                	ret
   10cf2:	85c2                	mv	a1,a6
   10cf4:	00081b63          	bnez	a6,10d0a <__new_exitfn+0x84>
   10cf8:	41000593          	li	a1,1040
   10cfc:	4505                	li	a0,1
   10cfe:	26b070ef          	jal	18768 <__calloc>
   10d02:	85aa                	mv	a1,a0
   10d04:	c901                	beqz	a0,10d14 <__new_exitfn+0x8e>
   10d06:	e104                	sd	s1,0(a0)
   10d08:	e008                	sd	a0,0(s0)
   10d0a:	4785                	li	a5,1
   10d0c:	01058513          	addi	a0,a1,16
   10d10:	e59c                	sd	a5,8(a1)
   10d12:	b7e1                	j	10cda <__new_exitfn+0x54>
   10d14:	60e2                	ld	ra,24(sp)
   10d16:	6442                	ld	s0,16(sp)
   10d18:	64a2                	ld	s1,8(sp)
   10d1a:	4501                	li	a0,0
   10d1c:	6105                	addi	sp,sp,32
   10d1e:	8082                	ret
   10d20:	0003a697          	auipc	a3,0x3a
   10d24:	d8868693          	addi	a3,a3,-632 # 4aaa8 <__PRETTY_FUNCTION__.0>
   10d28:	06e00613          	li	a2,110
   10d2c:	0003a597          	auipc	a1,0x3a
   10d30:	d4c58593          	addi	a1,a1,-692 # 4aa78 <_IO_stdin_used+0x98>
   10d34:	0003a517          	auipc	a0,0x3a
   10d38:	d5450513          	addi	a0,a0,-684 # 4aa88 <_IO_stdin_used+0xa8>
   10d3c:	5c6140ef          	jal	25302 <__libc_assert_fail>
   10d40:	4501                	li	a0,0
   10d42:	8082                	ret

0000000000010d44 <__internal_atexit>:
   10d44:	7139                	addi	sp,sp,-64
   10d46:	fc06                	sd	ra,56(sp)
   10d48:	f822                	sd	s0,48(sp)
   10d4a:	f426                	sd	s1,40(sp)
   10d4c:	f04a                	sd	s2,32(sp)
   10d4e:	ec4e                	sd	s3,24(sp)
   10d50:	cd49                	beqz	a0,10dea <__internal_atexit+0xa6>
   10d52:	0a018413          	addi	s0,gp,160 # 6ea70 <__new_exitfn_called>
   10d56:	89ae                	mv	s3,a1
   10d58:	84aa                	mv	s1,a0
   10d5a:	8932                	mv	s2,a2
   10d5c:	4705                	li	a4,1
   10d5e:	00840593          	addi	a1,s0,8
   10d62:	1005a7af          	lr.w	a5,(a1)
   10d66:	e781                	bnez	a5,10d6e <__internal_atexit+0x2a>
   10d68:	1ce5a62f          	sc.w.aq	a2,a4,(a1)
   10d6c:	fa7d                	bnez	a2,10d62 <__internal_atexit+0x1e>
   10d6e:	2781                	sext.w	a5,a5
   10d70:	e7a1                	bnez	a5,10db8 <__internal_atexit+0x74>
   10d72:	8536                	mv	a0,a3
   10d74:	f13ff0ef          	jal	10c86 <__new_exitfn>
   10d78:	c531                	beqz	a0,10dc4 <__internal_atexit+0x80>
   10d7a:	4791                	li	a5,4
   10d7c:	e11c                	sd	a5,0(a0)
   10d7e:	e504                	sd	s1,8(a0)
   10d80:	01353823          	sd	s3,16(a0)
   10d84:	01253c23          	sd	s2,24(a0)
   10d88:	4781                	li	a5,0
   10d8a:	00840713          	addi	a4,s0,8
   10d8e:	0f50000f          	fence	iorw,ow
   10d92:	08f727af          	amoswap.w	a5,a5,(a4)
   10d96:	2781                	sext.w	a5,a5
   10d98:	4705                	li	a4,1
   10d9a:	00f74a63          	blt	a4,a5,10dae <__internal_atexit+0x6a>
   10d9e:	4501                	li	a0,0
   10da0:	70e2                	ld	ra,56(sp)
   10da2:	7442                	ld	s0,48(sp)
   10da4:	74a2                	ld	s1,40(sp)
   10da6:	7902                	ld	s2,32(sp)
   10da8:	69e2                	ld	s3,24(sp)
   10daa:	6121                	addi	sp,sp,64
   10dac:	8082                	ret
   10dae:	0a818513          	addi	a0,gp,168 # 6ea78 <__exit_funcs_lock>
   10db2:	3e3030ef          	jal	14994 <__lll_lock_wake_private>
   10db6:	b7e5                	j	10d9e <__internal_atexit+0x5a>
   10db8:	852e                	mv	a0,a1
   10dba:	e436                	sd	a3,8(sp)
   10dbc:	33f030ef          	jal	148fa <__lll_lock_wait_private>
   10dc0:	66a2                	ld	a3,8(sp)
   10dc2:	bf45                	j	10d72 <__internal_atexit+0x2e>
   10dc4:	00840793          	addi	a5,s0,8
   10dc8:	0f50000f          	fence	iorw,ow
   10dcc:	08a7a52f          	amoswap.w	a0,a0,(a5)
   10dd0:	0005079b          	sext.w	a5,a0
   10dd4:	4705                	li	a4,1
   10dd6:	00f74463          	blt	a4,a5,10dde <__internal_atexit+0x9a>
   10dda:	557d                	li	a0,-1
   10ddc:	b7d1                	j	10da0 <__internal_atexit+0x5c>
   10dde:	0a818513          	addi	a0,gp,168 # 6ea78 <__exit_funcs_lock>
   10de2:	3b3030ef          	jal	14994 <__lll_lock_wake_private>
   10de6:	557d                	li	a0,-1
   10de8:	bf65                	j	10da0 <__internal_atexit+0x5c>
   10dea:	0003a697          	auipc	a3,0x3a
   10dee:	cce68693          	addi	a3,a3,-818 # 4aab8 <__PRETTY_FUNCTION__.1>
   10df2:	02900613          	li	a2,41
   10df6:	0003a597          	auipc	a1,0x3a
   10dfa:	c8258593          	addi	a1,a1,-894 # 4aa78 <_IO_stdin_used+0x98>
   10dfe:	0003a517          	auipc	a0,0x3a
   10e02:	c9a50513          	addi	a0,a0,-870 # 4aa98 <_IO_stdin_used+0xb8>
   10e06:	4fc140ef          	jal	25302 <__libc_assert_fail>

0000000000010e0a <__cxa_atexit>:
   10e0a:	0005b697          	auipc	a3,0x5b
   10e0e:	1f668693          	addi	a3,a3,502 # 6c000 <__exit_funcs>
   10e12:	bf0d                	j	10d44 <__internal_atexit>

0000000000010e14 <__run_exit_handlers>:
   10e14:	7119                	addi	sp,sp,-128
   10e16:	e0da                	sd	s6,64(sp)
   10e18:	fc5e                	sd	s7,56(sp)
   10e1a:	f862                	sd	s8,48(sp)
   10e1c:	fc86                	sd	ra,120(sp)
   10e1e:	f8a2                	sd	s0,112(sp)
   10e20:	f4a6                	sd	s1,104(sp)
   10e22:	f0ca                	sd	s2,96(sp)
   10e24:	ecce                	sd	s3,88(sp)
   10e26:	e8d2                	sd	s4,80(sp)
   10e28:	e4d6                	sd	s5,72(sp)
   10e2a:	f466                	sd	s9,40(sp)
   10e2c:	f06a                	sd	s10,32(sp)
   10e2e:	ec6e                	sd	s11,24(sp)
   10e30:	0005d797          	auipc	a5,0x5d
   10e34:	3507b783          	ld	a5,848(a5) # 6e180 <_GLOBAL_OFFSET_TABLE_+0x400>
   10e38:	8b2a                	mv	s6,a0
   10e3a:	8bae                	mv	s7,a1
   10e3c:	8c32                	mv	s8,a2
   10e3e:	c399                	beqz	a5,10e44 <__run_exit_handlers+0x30>
   10e40:	18069363          	bnez	a3,10fc6 <__run_exit_handlers+0x1b2>
   10e44:	0005d417          	auipc	s0,0x5d
   10e48:	09443403          	ld	s0,148(s0) # 6ded8 <_GLOBAL_OFFSET_TABLE_+0x158>
   10e4c:	4705                	li	a4,1
   10e4e:	100427af          	lr.w	a5,(s0)
   10e52:	e781                	bnez	a5,10e5a <__run_exit_handlers+0x46>
   10e54:	1ce426af          	sc.w.aq	a3,a4,(s0)
   10e58:	fafd                	bnez	a3,10e4e <__run_exit_handlers+0x3a>
   10e5a:	2781                	sext.w	a5,a5
   10e5c:	16079e63          	bnez	a5,10fd8 <__run_exit_handlers+0x1c4>
   10e60:	498d                	li	s3,3
   10e62:	4911                	li	s2,4
   10e64:	4489                	li	s1,2
   10e66:	000bbc83          	ld	s9,0(s7)
   10e6a:	020c8d63          	beqz	s9,10ea4 <__run_exit_handlers+0x90>
   10e6e:	4a81                	li	s5,0
   10e70:	4a05                	li	s4,1
   10e72:	008cb783          	ld	a5,8(s9)
   10e76:	00579713          	slli	a4,a5,0x5
   10e7a:	9766                	add	a4,a4,s9
   10e7c:	cf91                	beqz	a5,10e98 <__run_exit_handlers+0x84>
   10e7e:	17fd                	addi	a5,a5,-1
   10e80:	00fcb423          	sd	a5,8(s9)
   10e84:	ff073683          	ld	a3,-16(a4)
   10e88:	05368463          	beq	a3,s3,10ed0 <__run_exit_handlers+0xbc>
   10e8c:	0b268e63          	beq	a3,s2,10f48 <__run_exit_handlers+0x134>
   10e90:	06968d63          	beq	a3,s1,10f0a <__run_exit_handlers+0xf6>
   10e94:	1701                	addi	a4,a4,-32
   10e96:	f7e5                	bnez	a5,10e7e <__run_exit_handlers+0x6a>
   10e98:	000cb783          	ld	a5,0(s9)
   10e9c:	00fbb023          	sd	a5,0(s7)
   10ea0:	10079f63          	bnez	a5,10fbe <__run_exit_handlers+0x1aa>
   10ea4:	4705                	li	a4,1
   10ea6:	4ce18023          	sb	a4,1216(gp) # 6ee90 <__exit_funcs_done>
   10eaa:	4781                	li	a5,0
   10eac:	0f50000f          	fence	iorw,ow
   10eb0:	08f427af          	amoswap.w	a5,a5,(s0)
   10eb4:	2781                	sext.w	a5,a5
   10eb6:	10f74a63          	blt	a4,a5,10fca <__run_exit_handlers+0x1b6>
   10eba:	000c0863          	beqz	s8,10eca <__run_exit_handlers+0xb6>
   10ebe:	0005d797          	auipc	a5,0x5d
   10ec2:	0b27b783          	ld	a5,178(a5) # 6df70 <_GLOBAL_OFFSET_TABLE_+0x1f0>
   10ec6:	c391                	beqz	a5,10eca <__run_exit_handlers+0xb6>
   10ec8:	9782                	jalr	a5
   10eca:	855a                	mv	a0,s6
   10ecc:	234090ef          	jal	1a100 <_exit>
   10ed0:	0796                	slli	a5,a5,0x5
   10ed2:	97e6                	add	a5,a5,s9
   10ed4:	0187bd03          	ld	s10,24(a5)
   10ed8:	87d6                	mv	a5,s5
   10eda:	0f50000f          	fence	iorw,ow
   10ede:	08f427af          	amoswap.w	a5,a5,(s0)
   10ee2:	2781                	sext.w	a5,a5
   10ee4:	0afa4663          	blt	s4,a5,10f90 <__run_exit_handlers+0x17c>
   10ee8:	9d02                	jalr	s10
   10eea:	4705                	li	a4,1
   10eec:	100427af          	lr.w	a5,(s0)
   10ef0:	e781                	bnez	a5,10ef8 <__run_exit_handlers+0xe4>
   10ef2:	1ce426af          	sc.w.aq	a3,a4,(s0)
   10ef6:	fafd                	bnez	a3,10eec <__run_exit_handlers+0xd8>
   10ef8:	2781                	sext.w	a5,a5
   10efa:	dfa5                	beqz	a5,10e72 <__run_exit_handlers+0x5e>
   10efc:	0005d517          	auipc	a0,0x5d
   10f00:	fdc53503          	ld	a0,-36(a0) # 6ded8 <_GLOBAL_OFFSET_TABLE_+0x158>
   10f04:	1f7030ef          	jal	148fa <__lll_lock_wait_private>
   10f08:	b7ad                	j	10e72 <__run_exit_handlers+0x5e>
   10f0a:	0796                	slli	a5,a5,0x5
   10f0c:	97e6                	add	a5,a5,s9
   10f0e:	0187bd03          	ld	s10,24(a5)
   10f12:	738c                	ld	a1,32(a5)
   10f14:	87d6                	mv	a5,s5
   10f16:	0f50000f          	fence	iorw,ow
   10f1a:	08f427af          	amoswap.w	a5,a5,(s0)
   10f1e:	2781                	sext.w	a5,a5
   10f20:	08fa4663          	blt	s4,a5,10fac <__run_exit_handlers+0x198>
   10f24:	855a                	mv	a0,s6
   10f26:	9d02                	jalr	s10
   10f28:	4705                	li	a4,1
   10f2a:	100427af          	lr.w	a5,(s0)
   10f2e:	e781                	bnez	a5,10f36 <__run_exit_handlers+0x122>
   10f30:	1ce426af          	sc.w.aq	a3,a4,(s0)
   10f34:	fafd                	bnez	a3,10f2a <__run_exit_handlers+0x116>
   10f36:	2781                	sext.w	a5,a5
   10f38:	df8d                	beqz	a5,10e72 <__run_exit_handlers+0x5e>
   10f3a:	0005d517          	auipc	a0,0x5d
   10f3e:	f9e53503          	ld	a0,-98(a0) # 6ded8 <_GLOBAL_OFFSET_TABLE_+0x158>
   10f42:	1b9030ef          	jal	148fa <__lll_lock_wait_private>
   10f46:	b735                	j	10e72 <__run_exit_handlers+0x5e>
   10f48:	0796                	slli	a5,a5,0x5
   10f4a:	97e6                	add	a5,a5,s9
   10f4c:	0187bd03          	ld	s10,24(a5)
   10f50:	0207bd83          	ld	s11,32(a5)
   10f54:	0007b823          	sd	zero,16(a5)
   10f58:	87d6                	mv	a5,s5
   10f5a:	0f50000f          	fence	iorw,ow
   10f5e:	08f427af          	amoswap.w	a5,a5,(s0)
   10f62:	2781                	sext.w	a5,a5
   10f64:	02fa4d63          	blt	s4,a5,10f9e <__run_exit_handlers+0x18a>
   10f68:	85da                	mv	a1,s6
   10f6a:	856e                	mv	a0,s11
   10f6c:	9d02                	jalr	s10
   10f6e:	4705                	li	a4,1
   10f70:	100427af          	lr.w	a5,(s0)
   10f74:	e781                	bnez	a5,10f7c <__run_exit_handlers+0x168>
   10f76:	1ce426af          	sc.w.aq	a3,a4,(s0)
   10f7a:	fafd                	bnez	a3,10f70 <__run_exit_handlers+0x15c>
   10f7c:	2781                	sext.w	a5,a5
   10f7e:	ee078ae3          	beqz	a5,10e72 <__run_exit_handlers+0x5e>
   10f82:	0005d517          	auipc	a0,0x5d
   10f86:	f5653503          	ld	a0,-170(a0) # 6ded8 <_GLOBAL_OFFSET_TABLE_+0x158>
   10f8a:	171030ef          	jal	148fa <__lll_lock_wait_private>
   10f8e:	b5d5                	j	10e72 <__run_exit_handlers+0x5e>
   10f90:	0005d517          	auipc	a0,0x5d
   10f94:	f4853503          	ld	a0,-184(a0) # 6ded8 <_GLOBAL_OFFSET_TABLE_+0x158>
   10f98:	1fd030ef          	jal	14994 <__lll_lock_wake_private>
   10f9c:	b7b1                	j	10ee8 <__run_exit_handlers+0xd4>
   10f9e:	0005d517          	auipc	a0,0x5d
   10fa2:	f3a53503          	ld	a0,-198(a0) # 6ded8 <_GLOBAL_OFFSET_TABLE_+0x158>
   10fa6:	1ef030ef          	jal	14994 <__lll_lock_wake_private>
   10faa:	bf7d                	j	10f68 <__run_exit_handlers+0x154>
   10fac:	0005d517          	auipc	a0,0x5d
   10fb0:	f2c53503          	ld	a0,-212(a0) # 6ded8 <_GLOBAL_OFFSET_TABLE_+0x158>
   10fb4:	e42e                	sd	a1,8(sp)
   10fb6:	1df030ef          	jal	14994 <__lll_lock_wake_private>
   10fba:	65a2                	ld	a1,8(sp)
   10fbc:	b7a5                	j	10f24 <__run_exit_handlers+0x110>
   10fbe:	8566                	mv	a0,s9
   10fc0:	14a070ef          	jal	1810a <__free>
   10fc4:	b54d                	j	10e66 <__run_exit_handlers+0x52>
   10fc6:	9782                	jalr	a5
   10fc8:	bdb5                	j	10e44 <__run_exit_handlers+0x30>
   10fca:	0005d517          	auipc	a0,0x5d
   10fce:	f0e53503          	ld	a0,-242(a0) # 6ded8 <_GLOBAL_OFFSET_TABLE_+0x158>
   10fd2:	1c3030ef          	jal	14994 <__lll_lock_wake_private>
   10fd6:	b5d5                	j	10eba <__run_exit_handlers+0xa6>
   10fd8:	8522                	mv	a0,s0
   10fda:	121030ef          	jal	148fa <__lll_lock_wait_private>
   10fde:	b549                	j	10e60 <__run_exit_handlers+0x4c>

0000000000010fe0 <exit>:
   10fe0:	1141                	addi	sp,sp,-16
   10fe2:	4685                	li	a3,1
   10fe4:	4605                	li	a2,1
   10fe6:	0005b597          	auipc	a1,0x5b
   10fea:	01a58593          	addi	a1,a1,26 # 6c000 <__exit_funcs>
   10fee:	e406                	sd	ra,8(sp)
   10ff0:	e25ff0ef          	jal	10e14 <__run_exit_handlers>

0000000000010ff4 <_IO_printf>:
   10ff4:	8e2a                	mv	t3,a0
   10ff6:	0005d517          	auipc	a0,0x5d
   10ffa:	dca53503          	ld	a0,-566(a0) # 6ddc0 <_GLOBAL_OFFSET_TABLE_+0x40>
   10ffe:	711d                	addi	sp,sp,-96
   11000:	6108                	ld	a0,0(a0)
   11002:	02810313          	addi	t1,sp,40
   11006:	f42e                	sd	a1,40(sp)
   11008:	f832                	sd	a2,48(sp)
   1100a:	fc36                	sd	a3,56(sp)
   1100c:	861a                	mv	a2,t1
   1100e:	4681                	li	a3,0
   11010:	85f2                	mv	a1,t3
   11012:	ec06                	sd	ra,24(sp)
   11014:	e0ba                	sd	a4,64(sp)
   11016:	e4be                	sd	a5,72(sp)
   11018:	e8c2                	sd	a6,80(sp)
   1101a:	ecc6                	sd	a7,88(sp)
   1101c:	e41a                	sd	t1,8(sp)
   1101e:	737020ef          	jal	13f54 <__vfprintf_internal>
   11022:	60e2                	ld	ra,24(sp)
   11024:	6125                	addi	sp,sp,96
   11026:	8082                	ret

0000000000011028 <read_int>:
   11028:	611c                	ld	a5,0(a0)
   1102a:	45a5                	li	a1,9
   1102c:	862a                	mv	a2,a0
   1102e:	00178713          	addi	a4,a5,1
   11032:	0007c683          	lbu	a3,0(a5)
   11036:	e118                	sd	a4,0(a0)
   11038:	0017c783          	lbu	a5,1(a5)
   1103c:	fd06851b          	addiw	a0,a3,-48
   11040:	fd07879b          	addiw	a5,a5,-48
   11044:	04f5e263          	bltu	a1,a5,11088 <read_int+0x60>
   11048:	0cccd8b7          	lui	a7,0xcccd
   1104c:	80000837          	lui	a6,0x80000
   11050:	ccc88893          	addi	a7,a7,-820 # ccccccc <__BSS_END__+0xcc59654>
   11054:	fff84813          	not	a6,a6
   11058:	02054063          	bltz	a0,11078 <read_int+0x50>
   1105c:	0025169b          	slliw	a3,a0,0x2
   11060:	9ea9                	addw	a3,a3,a0
   11062:	0016931b          	slliw	t1,a3,0x1
   11066:	40f80e3b          	subw	t3,a6,a5
   1106a:	02a8c063          	blt	a7,a0,1108a <read_int+0x62>
   1106e:	557d                	li	a0,-1
   11070:	006e4463          	blt	t3,t1,11078 <read_int+0x50>
   11074:	00f3053b          	addw	a0,t1,a5
   11078:	0705                	addi	a4,a4,1
   1107a:	e218                	sd	a4,0(a2)
   1107c:	00074783          	lbu	a5,0(a4)
   11080:	fd07879b          	addiw	a5,a5,-48
   11084:	fcf5fae3          	bgeu	a1,a5,11058 <read_int+0x30>
   11088:	8082                	ret
   1108a:	557d                	li	a0,-1
   1108c:	b7f5                	j	11078 <read_int+0x50>

000000000001108e <outstring_converted_wide_string>:
   1108e:	7165                	addi	sp,sp,-400
   11090:	f2d2                	sd	s4,352(sp)
   11092:	eed6                	sd	s5,344(sp)
   11094:	fa6a                	sd	s10,304(sp)
   11096:	f66e                	sd	s11,296(sp)
   11098:	e706                	sd	ra,392(sp)
   1109a:	e322                	sd	s0,384(sp)
   1109c:	fea6                	sd	s1,376(sp)
   1109e:	faca                	sd	s2,368(sp)
   110a0:	f6ce                	sd	s3,360(sp)
   110a2:	eada                	sd	s6,336(sp)
   110a4:	e6de                	sd	s7,328(sp)
   110a6:	e2e2                	sd	s8,320(sp)
   110a8:	fe66                	sd	s9,312(sp)
   110aa:	e42e                	sd	a1,8(sp)
   110ac:	8d36                	mv	s10,a3
   110ae:	8aaa                	mv	s5,a0
   110b0:	8a32                	mv	s4,a2
   110b2:	8dba                	mv	s11,a4
   110b4:	04d05d63          	blez	a3,1110e <outstring_converted_wide_string+0x80>
   110b8:	e36d                	bnez	a4,1119a <outstring_converted_wide_string+0x10c>
   110ba:	e802                	sd	zero,16(sp)
   110bc:	ec2e                	sd	a1,24(sp)
   110be:	87ae                	mv	a5,a1
   110c0:	10064163          	bltz	a2,111c2 <outstring_converted_wide_string+0x134>
   110c4:	8432                	mv	s0,a2
   110c6:	4c01                	li	s8,0
   110c8:	c675                	beqz	a2,111b4 <outstring_converted_wide_string+0x126>
   110ca:	01010993          	addi	s3,sp,16
   110ce:	10000b93          	li	s7,256
   110d2:	01810913          	addi	s2,sp,24
   110d6:	1004                	addi	s1,sp,32
   110d8:	5b7d                	li	s6,-1
   110da:	a839                	j	110f8 <outstring_converted_wide_string+0x6a>
   110dc:	8622                	mv	a2,s0
   110de:	008bf463          	bgeu	s7,s0,110e6 <outstring_converted_wide_string+0x58>
   110e2:	10000613          	li	a2,256
   110e6:	1d5080ef          	jal	19aba <__wcsrtombs>
   110ea:	8c09                	sub	s0,s0,a0
   110ec:	0b650f63          	beq	a0,s6,111aa <outstring_converted_wide_string+0x11c>
   110f0:	c901                	beqz	a0,11100 <outstring_converted_wide_string+0x72>
   110f2:	9c2a                	add	s8,s8,a0
   110f4:	c411                	beqz	s0,11100 <outstring_converted_wide_string+0x72>
   110f6:	67e2                	ld	a5,24(sp)
   110f8:	86ce                	mv	a3,s3
   110fa:	85ca                	mv	a1,s2
   110fc:	8526                	mv	a0,s1
   110fe:	fff9                	bnez	a5,110dc <outstring_converted_wide_string+0x4e>
   11100:	418d0633          	sub	a2,s10,s8
   11104:	0ac04963          	bgtz	a2,111b6 <outstring_converted_wide_string+0x128>
   11108:	020aa783          	lw	a5,32(s5)
   1110c:	cba5                	beqz	a5,1117c <outstring_converted_wide_string+0xee>
   1110e:	ec02                	sd	zero,24(sp)
   11110:	0a0a4063          	bltz	s4,111b0 <outstring_converted_wide_string+0x122>
   11114:	84d2                	mv	s1,s4
   11116:	060a0363          	beqz	s4,1117c <outstring_converted_wide_string+0xee>
   1111a:	4981                	li	s3,0
   1111c:	01810b93          	addi	s7,sp,24
   11120:	10000c93          	li	s9,256
   11124:	00810b13          	addi	s6,sp,8
   11128:	02010913          	addi	s2,sp,32
   1112c:	5c7d                	li	s8,-1
   1112e:	67a2                	ld	a5,8(sp)
   11130:	86de                	mv	a3,s7
   11132:	85da                	mv	a1,s6
   11134:	854a                	mv	a0,s2
   11136:	c795                	beqz	a5,11162 <outstring_converted_wide_string+0xd4>
   11138:	8626                	mv	a2,s1
   1113a:	009cf463          	bgeu	s9,s1,11142 <outstring_converted_wide_string+0xb4>
   1113e:	10000613          	li	a2,256
   11142:	179080ef          	jal	19aba <__wcsrtombs>
   11146:	842a                	mv	s0,a0
   11148:	862a                	mv	a2,a0
   1114a:	85ca                	mv	a1,s2
   1114c:	8556                	mv	a0,s5
   1114e:	05840e63          	beq	s0,s8,111aa <outstring_converted_wide_string+0x11c>
   11152:	c801                	beqz	s0,11162 <outstring_converted_wide_string+0xd4>
   11154:	238190ef          	jal	2a38c <__printf_buffer_write>
   11158:	99a2                	add	s3,s3,s0
   1115a:	fc0a4ae3          	bltz	s4,1112e <outstring_converted_wide_string+0xa0>
   1115e:	8c81                	sub	s1,s1,s0
   11160:	f4f9                	bnez	s1,1112e <outstring_converted_wide_string+0xa0>
   11162:	01a05d63          	blez	s10,1117c <outstring_converted_wide_string+0xee>
   11166:	000d8b63          	beqz	s11,1117c <outstring_converted_wide_string+0xee>
   1116a:	413d0633          	sub	a2,s10,s3
   1116e:	00c05763          	blez	a2,1117c <outstring_converted_wide_string+0xee>
   11172:	02000593          	li	a1,32
   11176:	8556                	mv	a0,s5
   11178:	72f180ef          	jal	2a0a6 <__printf_buffer_pad_1>
   1117c:	60ba                	ld	ra,392(sp)
   1117e:	641a                	ld	s0,384(sp)
   11180:	74f6                	ld	s1,376(sp)
   11182:	7956                	ld	s2,368(sp)
   11184:	79b6                	ld	s3,360(sp)
   11186:	7a16                	ld	s4,352(sp)
   11188:	6af6                	ld	s5,344(sp)
   1118a:	6b56                	ld	s6,336(sp)
   1118c:	6bb6                	ld	s7,328(sp)
   1118e:	6c16                	ld	s8,320(sp)
   11190:	7cf2                	ld	s9,312(sp)
   11192:	7d52                	ld	s10,304(sp)
   11194:	7db2                	ld	s11,296(sp)
   11196:	6159                	addi	sp,sp,400
   11198:	8082                	ret
   1119a:	ec02                	sd	zero,24(sp)
   1119c:	00064a63          	bltz	a2,111b0 <outstring_converted_wide_string+0x122>
   111a0:	84b2                	mv	s1,a2
   111a2:	8636                	mv	a2,a3
   111a4:	f60a1be3          	bnez	s4,1111a <outstring_converted_wide_string+0x8c>
   111a8:	b7e9                	j	11172 <outstring_converted_wide_string+0xe4>
   111aa:	020aa023          	sw	zero,32(s5)
   111ae:	b7f9                	j	1117c <outstring_converted_wide_string+0xee>
   111b0:	54fd                	li	s1,-1
   111b2:	b7a5                	j	1111a <outstring_converted_wide_string+0x8c>
   111b4:	8636                	mv	a2,a3
   111b6:	02000593          	li	a1,32
   111ba:	8556                	mv	a0,s5
   111bc:	6eb180ef          	jal	2a0a6 <__printf_buffer_pad_1>
   111c0:	b7a1                	j	11108 <outstring_converted_wide_string+0x7a>
   111c2:	0814                	addi	a3,sp,16
   111c4:	4601                	li	a2,0
   111c6:	082c                	addi	a1,sp,24
   111c8:	4501                	li	a0,0
   111ca:	0f1080ef          	jal	19aba <__wcsrtombs>
   111ce:	8c2a                	mv	s8,a0
   111d0:	bf05                	j	11100 <outstring_converted_wide_string+0x72>

00000000000111d2 <group_number>:
   111d2:	7139                	addi	sp,sp,-64
   111d4:	f822                	sd	s0,48(sp)
   111d6:	f426                	sd	s1,40(sp)
   111d8:	f04a                	sd	s2,32(sp)
   111da:	ec4e                	sd	s3,24(sp)
   111dc:	e05a                	sd	s6,0(sp)
   111de:	fc06                	sd	ra,56(sp)
   111e0:	e852                	sd	s4,16(sp)
   111e2:	e456                	sd	s5,8(sp)
   111e4:	842a                	mv	s0,a0
   111e6:	892e                	mv	s2,a1
   111e8:	8b32                	mv	s6,a2
   111ea:	84b6                	mv	s1,a3
   111ec:	89ba                	mv	s3,a4
   111ee:	c3a5                	beqz	a5,1124e <group_number+0x7c>
   111f0:	6a41                	lui	s4,0x10
   111f2:	0005da97          	auipc	s5,0x5d
   111f6:	d8eaba83          	ld	s5,-626(s5) # 6df80 <_GLOBAL_OFFSET_TABLE_+0x200>
   111fa:	1a7d                	addi	s4,s4,-1 # ffff <__libc_dlerror_result+0xffaf>
   111fc:	04d61463          	bne	a2,a3,11244 <group_number+0x72>
   11200:	70e2                	ld	ra,56(sp)
   11202:	7442                	ld	s0,48(sp)
   11204:	74a2                	ld	s1,40(sp)
   11206:	7902                	ld	s2,32(sp)
   11208:	69e2                	ld	s3,24(sp)
   1120a:	6a42                	ld	s4,16(sp)
   1120c:	6aa2                	ld	s5,8(sp)
   1120e:	6b02                	ld	s6,0(sp)
   11210:	6121                	addi	sp,sp,64
   11212:	8082                	ret
   11214:	85ce                	mv	a1,s3
   11216:	8522                	mv	a0,s0
   11218:	767180ef          	jal	2a17e <__printf_buffer_puts_1>
   1121c:	000b4783          	lbu	a5,0(s6)
   11220:	004a8733          	add	a4,s5,tp
   11224:	6318                	ld	a4,0(a4)
   11226:	37e5                	addiw	a5,a5,-7
   11228:	0147f7b3          	and	a5,a5,s4
   1122c:	6318                	ld	a4,0(a4)
   1122e:	2781                	sext.w	a5,a5
   11230:	0799                	addi	a5,a5,6
   11232:	078e                	slli	a5,a5,0x3
   11234:	97ba                	add	a5,a5,a4
   11236:	678c                	ld	a1,8(a5)
   11238:	0b05                	addi	s6,s6,1
   1123a:	8522                	mv	a0,s0
   1123c:	743180ef          	jal	2a17e <__printf_buffer_puts_1>
   11240:	fd6480e3          	beq	s1,s6,11200 <group_number+0x2e>
   11244:	854a                	mv	a0,s2
   11246:	5cb180ef          	jal	2a010 <__grouping_iterator_next>
   1124a:	d969                	beqz	a0,1121c <group_number+0x4a>
   1124c:	b7e1                	j	11214 <group_number+0x42>
   1124e:	fad609e3          	beq	a2,a3,11200 <group_number+0x2e>
   11252:	854a                	mv	a0,s2
   11254:	5bd180ef          	jal	2a010 <__grouping_iterator_next>
   11258:	e11d                	bnez	a0,1127e <group_number+0xac>
   1125a:	641c                	ld	a5,8(s0)
   1125c:	6818                	ld	a4,16(s0)
   1125e:	000b4583          	lbu	a1,0(s6)
   11262:	00178693          	addi	a3,a5,1
   11266:	02e78863          	beq	a5,a4,11296 <group_number+0xc4>
   1126a:	e414                	sd	a3,8(s0)
   1126c:	00b78023          	sb	a1,0(a5)
   11270:	0b05                	addi	s6,s6,1
   11272:	f96487e3          	beq	s1,s6,11200 <group_number+0x2e>
   11276:	854a                	mv	a0,s2
   11278:	599180ef          	jal	2a010 <__grouping_iterator_next>
   1127c:	dd79                	beqz	a0,1125a <group_number+0x88>
   1127e:	85ce                	mv	a1,s3
   11280:	8522                	mv	a0,s0
   11282:	6fd180ef          	jal	2a17e <__printf_buffer_puts_1>
   11286:	641c                	ld	a5,8(s0)
   11288:	6818                	ld	a4,16(s0)
   1128a:	000b4583          	lbu	a1,0(s6)
   1128e:	00178693          	addi	a3,a5,1
   11292:	fce79ce3          	bne	a5,a4,1126a <group_number+0x98>
   11296:	8522                	mv	a0,s0
   11298:	695180ef          	jal	2a12c <__printf_buffer_putc_1>
   1129c:	bfd1                	j	11270 <group_number+0x9e>

000000000001129e <printf_positional>:
   1129e:	7165                	addi	sp,sp,-400
   112a0:	76fd                	lui	a3,0xfffff
   112a2:	e322                	sd	s0,384(sp)
   112a4:	fea6                	sd	s1,376(sp)
   112a6:	0b00                	addi	s0,sp,400
   112a8:	f9068493          	addi	s1,a3,-112 # ffffffffffffef90 <__BSS_END__+0xfffffffffff8b918>
   112ac:	7f7d                	lui	t5,0xfffff
   112ae:	f6ce                	sd	s3,360(sp)
   112b0:	fa6a                	sd	s10,304(sp)
   112b2:	f66e                	sd	s11,296(sp)
   112b4:	e706                	sd	ra,392(sp)
   112b6:	faca                	sd	s2,368(sp)
   112b8:	f2d2                	sd	s4,352(sp)
   112ba:	eed6                	sd	s5,344(sp)
   112bc:	eada                	sd	s6,336(sp)
   112be:	e6de                	sd	s7,328(sp)
   112c0:	e2e2                	sd	s8,320(sp)
   112c2:	fe66                	sd	s9,312(sp)
   112c4:	00848333          	add	t1,s1,s0
   112c8:	6d8f0f13          	addi	t5,t5,1752 # fffffffffffff6d8 <__BSS_END__+0xfffffffffff8c060>
   112cc:	869a                	mv	a3,t1
   112ce:	b9040493          	addi	s1,s0,-1136
   112d2:	7f030313          	addi	t1,t1,2032
   112d6:	9f22                	add	t5,t5,s0
   112d8:	7e66b023          	sd	t1,2016(a3)
   112dc:	009f3023          	sd	s1,0(t5)
   112e0:	b8943023          	sd	s1,-1152(s0)
   112e4:	737d                	lui	t1,0xfffff
   112e6:	4004                	lw	s1,0(s0)
   112e8:	8daa                	mv	s11,a0
   112ea:	89ba                	mv	s3,a4
   112ec:	757d                	lui	a0,0xfffff
   112ee:	777d                	lui	a4,0xfffff
   112f0:	6c030313          	addi	t1,t1,1728 # fffffffffffff6c0 <__BSS_END__+0xfffffffffff8c048>
   112f4:	6b050513          	addi	a0,a0,1712 # fffffffffffff6b0 <__BSS_END__+0xfffffffffff8c038>
   112f8:	72870713          	addi	a4,a4,1832 # fffffffffffff728 <__BSS_END__+0xfffffffffff8c0b0>
   112fc:	9322                	add	t1,t1,s0
   112fe:	9522                	add	a0,a0,s0
   11300:	9722                	add	a4,a4,s0
   11302:	00933023          	sd	s1,0(t1)
   11306:	e10c                	sd	a1,0(a0)
   11308:	4c04                	lw	s1,24(s0)
   1130a:	737d                	lui	t1,0xfffff
   1130c:	75fd                	lui	a1,0xfffff
   1130e:	e31c                	sd	a5,0(a4)
   11310:	77fd                	lui	a5,0xfffff
   11312:	73030313          	addi	t1,t1,1840 # fffffffffffff730 <__BSS_END__+0xfffffffffff8c0b8>
   11316:	6c858593          	addi	a1,a1,1736 # fffffffffffff6c8 <__BSS_END__+0xfffffffffff8c050>
   1131a:	6f878793          	addi	a5,a5,1784 # fffffffffffff6f8 <__BSS_END__+0xfffffffffff8c080>
   1131e:	00843e83          	ld	t4,8(s0)
   11322:	40000e13          	li	t3,1024
   11326:	9322                	add	t1,t1,s0
   11328:	95a2                	add	a1,a1,s0
   1132a:	97a2                	add	a5,a5,s0
   1132c:	7fc6b423          	sd	t3,2024(a3)
   11330:	7a06bc23          	sd	zero,1976(a3)
   11334:	b9c43423          	sd	t3,-1144(s0)
   11338:	56fd                	li	a3,-1
   1133a:	00933023          	sd	s1,0(t1)
   1133e:	e190                	sd	a2,0(a1)
   11340:	0117b023          	sd	a7,0(a5)
   11344:	81010113          	addi	sp,sp,-2032
   11348:	8d42                	mv	s10,a6
   1134a:	62de8163          	beq	t4,a3,1196c <printf_positional+0x6ce>
   1134e:	000d4783          	lbu	a5,0(s10)
   11352:	e399                	bnez	a5,11358 <printf_positional+0xba>
   11354:	5a40106f          	j	128f8 <printf_positional+0x165a>
   11358:	7afd                	lui	s5,0xfffff
   1135a:	777d                	lui	a4,0xfffff
   1135c:	770a8793          	addi	a5,s5,1904 # fffffffffffff770 <__BSS_END__+0xfffffffffff8c0f8>
   11360:	73870713          	addi	a4,a4,1848 # fffffffffffff738 <__BSS_END__+0xfffffffffff8c0c0>
   11364:	97a2                	add	a5,a5,s0
   11366:	9722                	add	a4,a4,s0
   11368:	e31c                	sd	a5,0(a4)
   1136a:	777d                	lui	a4,0xfffff
   1136c:	01078913          	addi	s2,a5,16
   11370:	74870793          	addi	a5,a4,1864 # fffffffffffff748 <__BSS_END__+0xfffffffffff8c0d0>
   11374:	00878a33          	add	s4,a5,s0
   11378:	f9070793          	addi	a5,a4,-112
   1137c:	4c81                	li	s9,0
   1137e:	4c01                	li	s8,0
   11380:	4b01                	li	s6,0
   11382:	44b9                	li	s1,14
   11384:	00878bb3          	add	s7,a5,s0
   11388:	01890ab3          	add	s5,s2,s8
   1138c:	85e6                	mv	a1,s9
   1138e:	856a                	mv	a0,s10
   11390:	86d2                	mv	a3,s4
   11392:	8656                	mv	a2,s5
   11394:	5e7020ef          	jal	1417a <__parse_one_specmb>
   11398:	020abd03          	ld	s10,32(s5)
   1139c:	9caa                	add	s9,s9,a0
   1139e:	0b05                	addi	s6,s6,1
   113a0:	000d4783          	lbu	a5,0(s10)
   113a4:	048c0c13          	addi	s8,s8,72
   113a8:	c78d                	beqz	a5,113d2 <printf_positional+0x134>
   113aa:	fd649fe3          	bne	s1,s6,11388 <printf_positional+0xea>
   113ae:	77fd                	lui	a5,0xfffff
   113b0:	73878793          	addi	a5,a5,1848 # fffffffffffff738 <__BSS_END__+0xfffffffffff8c0c0>
   113b4:	97a2                	add	a5,a5,s0
   113b6:	6388                	ld	a0,0(a5)
   113b8:	565070ef          	jal	1911c <__libc_scratch_buffer_grow_preserve>
   113bc:	4e050863          	beqz	a0,118ac <printf_positional+0x60e>
   113c0:	7e8bb483          	ld	s1,2024(s7)
   113c4:	04800793          	li	a5,72
   113c8:	7e0bb903          	ld	s2,2016(s7)
   113cc:	02f4d4b3          	divu	s1,s1,a5
   113d0:	bf65                	j	11388 <printf_positional+0xea>
   113d2:	77fd                	lui	a5,0xfffff
   113d4:	f9078793          	addi	a5,a5,-112 # ffffffffffffef90 <__BSS_END__+0xfffffffffff8b918>
   113d8:	00878c33          	add	s8,a5,s0
   113dc:	7b8c3d03          	ld	s10,1976(s8)
   113e0:	4d9d6363          	bltu	s10,s9,118a6 <printf_positional+0x608>
   113e4:	4661                	li	a2,24
   113e6:	85ea                	mv	a1,s10
   113e8:	b8040513          	addi	a0,s0,-1152
   113ec:	5bd070ef          	jal	191a8 <__libc_scratch_buffer_set_array_size>
   113f0:	777d                	lui	a4,0xfffff
   113f2:	69870713          	addi	a4,a4,1688 # fffffffffffff698 <__BSS_END__+0xfffffffffff8c020>
   113f6:	9722                	add	a4,a4,s0
   113f8:	e308                	sd	a0,0(a4)
   113fa:	4a050963          	beqz	a0,118ac <printf_positional+0x60e>
   113fe:	b8043783          	ld	a5,-1152(s0)
   11402:	777d                	lui	a4,0xfffff
   11404:	73870713          	addi	a4,a4,1848 # fffffffffffff738 <__BSS_END__+0xfffffffffff8c0c0>
   11408:	9722                	add	a4,a4,s0
   1140a:	e31c                	sd	a5,0(a4)
   1140c:	777d                	lui	a4,0xfffff
   1140e:	73070713          	addi	a4,a4,1840 # fffffffffffff730 <__BSS_END__+0xfffffffffff8c0b8>
   11412:	9722                	add	a4,a4,s0
   11414:	6318                	ld	a4,0(a4)
   11416:	004d1a13          	slli	s4,s10,0x4
   1141a:	76fd                	lui	a3,0xfffff
   1141c:	8b09                	andi	a4,a4,2
   1141e:	002d1613          	slli	a2,s10,0x2
   11422:	9a3e                	add	s4,s4,a5
   11424:	00e035b3          	snez	a1,a4
   11428:	6b868693          	addi	a3,a3,1720 # fffffffffffff6b8 <__BSS_END__+0xfffffffffff8c040>
   1142c:	00ca04b3          	add	s1,s4,a2
   11430:	40b005b3          	neg	a1,a1
   11434:	96a2                	add	a3,a3,s0
   11436:	0ff5f593          	zext.b	a1,a1
   1143a:	8526                	mv	a0,s1
   1143c:	e298                	sd	a4,0(a3)
   1143e:	6f1070ef          	jal	1932e <memset>
   11442:	000b1463          	bnez	s6,1144a <printf_positional+0x1ac>
   11446:	36c0106f          	j	127b2 <printf_positional+0x1514>
   1144a:	8aca                	mv	s5,s2
   1144c:	4b81                	li	s7,0
   1144e:	5c7d                	li	s8,-1
   11450:	4805                	li	a6,1
   11452:	00062c97          	auipc	s9,0x62
   11456:	216c8c93          	addi	s9,s9,534 # 73668 <__printf_arginfo_table>
   1145a:	a025                	j	11482 <printf_positional+0x1e4>
   1145c:	030aa783          	lw	a5,48(s5)
   11460:	034aa703          	lw	a4,52(s5)
   11464:	078a                	slli	a5,a5,0x2
   11466:	97a6                	add	a5,a5,s1
   11468:	c398                	sw	a4,0(a5)
   1146a:	030aa783          	lw	a5,48(s5)
   1146e:	040aa703          	lw	a4,64(s5)
   11472:	078a                	slli	a5,a5,0x2
   11474:	97d2                	add	a5,a5,s4
   11476:	c398                	sw	a4,0(a5)
   11478:	0b85                	addi	s7,s7,1
   1147a:	048a8a93          	addi	s5,s5,72
   1147e:	056b8c63          	beq	s7,s6,114d6 <printf_positional+0x238>
   11482:	02caa783          	lw	a5,44(s5)
   11486:	01878663          	beq	a5,s8,11492 <printf_positional+0x1f4>
   1148a:	078a                	slli	a5,a5,0x2
   1148c:	97a6                	add	a5,a5,s1
   1148e:	0007a023          	sw	zero,0(a5)
   11492:	028aa783          	lw	a5,40(s5)
   11496:	01878663          	beq	a5,s8,114a2 <printf_positional+0x204>
   1149a:	078a                	slli	a5,a5,0x2
   1149c:	97a6                	add	a5,a5,s1
   1149e:	0007a023          	sw	zero,0(a5)
   114a2:	038ab583          	ld	a1,56(s5)
   114a6:	d9e9                	beqz	a1,11478 <printf_positional+0x1da>
   114a8:	fb058ae3          	beq	a1,a6,1145c <printf_positional+0x1be>
   114ac:	008aa703          	lw	a4,8(s5)
   114b0:	000cb783          	ld	a5,0(s9)
   114b4:	030aa603          	lw	a2,48(s5)
   114b8:	070e                	slli	a4,a4,0x3
   114ba:	97ba                	add	a5,a5,a4
   114bc:	639c                	ld	a5,0(a5)
   114be:	060a                	slli	a2,a2,0x2
   114c0:	00ca06b3          	add	a3,s4,a2
   114c4:	8556                	mv	a0,s5
   114c6:	9626                	add	a2,a2,s1
   114c8:	9782                	jalr	a5
   114ca:	0b85                	addi	s7,s7,1
   114cc:	4805                	li	a6,1
   114ce:	048a8a93          	addi	s5,s5,72
   114d2:	fb6b98e3          	bne	s7,s6,11482 <printf_positional+0x1e4>
   114d6:	060d0763          	beqz	s10,11544 <printf_positional+0x2a6>
   114da:	77fd                	lui	a5,0xfffff
   114dc:	73878793          	addi	a5,a5,1848 # fffffffffffff738 <__BSS_END__+0xfffffffffff8c0c0>
   114e0:	97a2                	add	a5,a5,s0
   114e2:	0007ba83          	ld	s5,0(a5)
   114e6:	4b81                	li	s7,0
   114e8:	4c1d                	li	s8,7
   114ea:	10700313          	li	t1,263
   114ee:	20000893          	li	a7,512
   114f2:	40000813          	li	a6,1024
   114f6:	56fd                	li	a3,-1
   114f8:	00039797          	auipc	a5,0x39
   114fc:	69878793          	addi	a5,a5,1688 # 4ab90 <null+0x8>
   11500:	4098                	lw	a4,0(s1)
   11502:	00ec4b63          	blt	s8,a4,11518 <printf_positional+0x27a>
   11506:	36d74863          	blt	a4,a3,11876 <printf_positional+0x5d8>
   1150a:	40ec6063          	bltu	s8,a4,1190a <printf_positional+0x66c>
   1150e:	070a                	slli	a4,a4,0x2
   11510:	973e                	add	a4,a4,a5
   11512:	4318                	lw	a4,0(a4)
   11514:	973e                	add	a4,a4,a5
   11516:	8702                	jr	a4
   11518:	42670263          	beq	a4,t1,1193c <printf_positional+0x69e>
   1151c:	40e35363          	bge	t1,a4,11922 <printf_positional+0x684>
   11520:	41170563          	beq	a4,a7,1192a <printf_positional+0x68c>
   11524:	35071963          	bne	a4,a6,11876 <printf_positional+0x5d8>
   11528:	0009b703          	ld	a4,0(s3)
   1152c:	4310                	lw	a2,0(a4)
   1152e:	0721                	addi	a4,a4,8
   11530:	00e9b023          	sd	a4,0(s3)
   11534:	00caa023          	sw	a2,0(s5)
   11538:	0b85                	addi	s7,s7,1
   1153a:	0491                	addi	s1,s1,4
   1153c:	0ac1                	addi	s5,s5,16
   1153e:	0a11                	addi	s4,s4,4
   11540:	fdabe0e3          	bltu	s7,s10,11500 <printf_positional+0x262>
   11544:	77fd                	lui	a5,0xfffff
   11546:	72878793          	addi	a5,a5,1832 # fffffffffffff728 <__BSS_END__+0xfffffffffff8c0b0>
   1154a:	97a2                	add	a5,a5,s0
   1154c:	0007be83          	ld	t4,0(a5)
   11550:	376ef063          	bgeu	t4,s6,118b0 <printf_positional+0x612>
   11554:	0005d717          	auipc	a4,0x5d
   11558:	b8473703          	ld	a4,-1148(a4) # 6e0d8 <_GLOBAL_OFFSET_TABLE_+0x358>
   1155c:	767d                	lui	a2,0xfffff
   1155e:	69060613          	addi	a2,a2,1680 # fffffffffffff690 <__BSS_END__+0xfffffffffff8c018>
   11562:	9622                	add	a2,a2,s0
   11564:	e218                	sd	a4,0(a2)
   11566:	777d                	lui	a4,0xfffff
   11568:	73070713          	addi	a4,a4,1840 # fffffffffffff730 <__BSS_END__+0xfffffffffff8c0b8>
   1156c:	9722                	add	a4,a4,s0
   1156e:	6318                	ld	a4,0(a4)
   11570:	767d                	lui	a2,0xfffff
   11572:	68860613          	addi	a2,a2,1672 # fffffffffffff688 <__BSS_END__+0xfffffffffff8c010>
   11576:	77fd                	lui	a5,0xfffff
   11578:	8b05                	andi	a4,a4,1
   1157a:	9622                	add	a2,a2,s0
   1157c:	76fd                	lui	a3,0xfffff
   1157e:	e218                	sd	a4,0(a2)
   11580:	6f068693          	addi	a3,a3,1776 # fffffffffffff6f0 <__BSS_END__+0xfffffffffff8c078>
   11584:	75878713          	addi	a4,a5,1880 # fffffffffffff758 <__BSS_END__+0xfffffffffff8c0e0>
   11588:	9722                	add	a4,a4,s0
   1158a:	96a2                	add	a3,a3,s0
   1158c:	e298                	sd	a4,0(a3)
   1158e:	777d                	lui	a4,0xfffff
   11590:	75078793          	addi	a5,a5,1872
   11594:	68070713          	addi	a4,a4,1664 # fffffffffffff680 <__BSS_END__+0xfffffffffff8c008>
   11598:	97a2                	add	a5,a5,s0
   1159a:	003e9813          	slli	a6,t4,0x3
   1159e:	9722                	add	a4,a4,s0
   115a0:	9876                	add	a6,a6,t4
   115a2:	e31c                	sd	a5,0(a4)
   115a4:	77fd                	lui	a5,0xfffff
   115a6:	080e                	slli	a6,a6,0x3
   115a8:	72078793          	addi	a5,a5,1824 # fffffffffffff720 <__BSS_END__+0xfffffffffff8c0a8>
   115ac:	01090ab3          	add	s5,s2,a6
   115b0:	97a2                	add	a5,a5,s0
   115b2:	0167b023          	sd	s6,0(a5)
   115b6:	8c76                	mv	s8,t4
   115b8:	8b56                	mv	s6,s5
   115ba:	8cee                	mv	s9,s11
   115bc:	a0c9                	j	1167e <printf_positional+0x3e0>
   115be:	777d                	lui	a4,0xfffff
   115c0:	70070713          	addi	a4,a4,1792 # fffffffffffff700 <__BSS_END__+0xfffffffffff8c088>
   115c4:	9722                	add	a4,a4,s0
   115c6:	01c73023          	sd	t3,0(a4)
   115ca:	777d                	lui	a4,0xfffff
   115cc:	70870713          	addi	a4,a4,1800 # fffffffffffff708 <__BSS_END__+0xfffffffffff8c090>
   115d0:	9722                	add	a4,a4,s0
   115d2:	00673023          	sd	t1,0(a4)
   115d6:	777d                	lui	a4,0xfffff
   115d8:	71070713          	addi	a4,a4,1808 # fffffffffffff710 <__BSS_END__+0xfffffffffff8c098>
   115dc:	9722                	add	a4,a4,s0
   115de:	01e73023          	sd	t5,0(a4)
   115e2:	777d                	lui	a4,0xfffff
   115e4:	71870713          	addi	a4,a4,1816 # fffffffffffff718 <__BSS_END__+0xfffffffffff8c0a0>
   115e8:	9722                	add	a4,a4,s0
   115ea:	e31c                	sd	a5,0(a4)
   115ec:	77fd                	lui	a5,0xfffff
   115ee:	72878793          	addi	a5,a5,1832 # fffffffffffff728 <__BSS_END__+0xfffffffffff8c0b0>
   115f2:	97a2                	add	a5,a5,s0
   115f4:	01f7b023          	sd	t6,0(a5)
   115f8:	77fd                	lui	a5,0xfffff
   115fa:	73878793          	addi	a5,a5,1848 # fffffffffffff738 <__BSS_END__+0xfffffffffff8c0c0>
   115fe:	030b2603          	lw	a2,48(s6)
   11602:	97a2                	add	a5,a5,s0
   11604:	639c                	ld	a5,0(a5)
   11606:	038b3683          	ld	a3,56(s6)
   1160a:	0612                	slli	a2,a2,0x4
   1160c:	875a                	mv	a4,s6
   1160e:	963e                	add	a2,a2,a5
   11610:	8566                	mv	a0,s9
   11612:	2da1b0ef          	jal	2c8ec <__printf_function_invoke>
   11616:	76fd                	lui	a3,0xfffff
   11618:	71068693          	addi	a3,a3,1808 # fffffffffffff710 <__BSS_END__+0xfffffffffff8c098>
   1161c:	96a2                	add	a3,a3,s0
   1161e:	0006bf03          	ld	t5,0(a3)
   11622:	77fd                	lui	a5,0xfffff
   11624:	76fd                	lui	a3,0xfffff
   11626:	72878793          	addi	a5,a5,1832 # fffffffffffff728 <__BSS_END__+0xfffffffffff8c0b0>
   1162a:	70868693          	addi	a3,a3,1800 # fffffffffffff708 <__BSS_END__+0xfffffffffff8c090>
   1162e:	97a2                	add	a5,a5,s0
   11630:	96a2                	add	a3,a3,s0
   11632:	0007bf83          	ld	t6,0(a5)
   11636:	0006b303          	ld	t1,0(a3)
   1163a:	77fd                	lui	a5,0xfffff
   1163c:	76fd                	lui	a3,0xfffff
   1163e:	71878793          	addi	a5,a5,1816 # fffffffffffff718 <__BSS_END__+0xfffffffffff8c0a0>
   11642:	70068693          	addi	a3,a3,1792 # fffffffffffff700 <__BSS_END__+0xfffffffffff8c088>
   11646:	97a2                	add	a5,a5,s0
   11648:	96a2                	add	a3,a3,s0
   1164a:	5779                	li	a4,-2
   1164c:	639c                	ld	a5,0(a5)
   1164e:	0006be03          	ld	t3,0(a3)
   11652:	0ee50f63          	beq	a0,a4,11750 <printf_positional+0x4b2>
   11656:	24054a63          	bltz	a0,118aa <printf_positional+0x60c>
   1165a:	018b3583          	ld	a1,24(s6)
   1165e:	020b3603          	ld	a2,32(s6)
   11662:	8566                	mv	a0,s9
   11664:	0c05                	addi	s8,s8,1
   11666:	8e0d                	sub	a2,a2,a1
   11668:	525180ef          	jal	2a38c <__printf_buffer_write>
   1166c:	77fd                	lui	a5,0xfffff
   1166e:	72078793          	addi	a5,a5,1824 # fffffffffffff720 <__BSS_END__+0xfffffffffff8c0a8>
   11672:	97a2                	add	a5,a5,s0
   11674:	639c                	ld	a5,0(a5)
   11676:	048b0b13          	addi	s6,s6,72
   1167a:	22fc7b63          	bgeu	s8,a5,118b0 <printf_positional+0x612>
   1167e:	020ca783          	lw	a5,32(s9)
   11682:	22078763          	beqz	a5,118b0 <printf_positional+0x612>
   11686:	008b3a83          	ld	s5,8(s6)
   1168a:	75fd                	lui	a1,0xfffff
   1168c:	008b2d83          	lw	s11,8(s6)
   11690:	027adb93          	srli	s7,s5,0x27
   11694:	73058593          	addi	a1,a1,1840 # fffffffffffff730 <__BSS_END__+0xfffffffffff8c0b8>
   11698:	02cb2703          	lw	a4,44(s6)
   1169c:	001bf613          	andi	a2,s7,1
   116a0:	95a2                	add	a1,a1,s0
   116a2:	023ad493          	srli	s1,s5,0x23
   116a6:	024ada13          	srli	s4,s5,0x24
   116aa:	025ad913          	srli	s2,s5,0x25
   116ae:	026ad993          	srli	s3,s5,0x26
   116b2:	021adf93          	srli	t6,s5,0x21
   116b6:	029ad793          	srli	a5,s5,0x29
   116ba:	022add13          	srli	s10,s5,0x22
   116be:	56fd                	li	a3,-1
   116c0:	02bada93          	srli	s5,s5,0x2b
   116c4:	e190                	sd	a2,0(a1)
   116c6:	004b2303          	lw	t1,4(s6)
   116ca:	000b2e03          	lw	t3,0(s6)
   116ce:	010b2f03          	lw	t5,16(s6)
   116d2:	8885                	andi	s1,s1,1
   116d4:	001a7a13          	andi	s4,s4,1
   116d8:	00197913          	andi	s2,s2,1
   116dc:	0019f993          	andi	s3,s3,1
   116e0:	001fff93          	andi	t6,t6,1
   116e4:	8b85                	andi	a5,a5,1
   116e6:	001d7d13          	andi	s10,s10,1
   116ea:	001afa93          	andi	s5,s5,1
   116ee:	0ffdfb93          	zext.b	s7,s11
   116f2:	00d70f63          	beq	a4,a3,11710 <printf_positional+0x472>
   116f6:	76fd                	lui	a3,0xfffff
   116f8:	73868693          	addi	a3,a3,1848 # fffffffffffff738 <__BSS_END__+0xfffffffffff8c0c0>
   116fc:	96a2                	add	a3,a3,s0
   116fe:	6294                	ld	a3,0(a3)
   11700:	0712                	slli	a4,a4,0x4
   11702:	9736                	add	a4,a4,a3
   11704:	00072303          	lw	t1,0(a4)
   11708:	100346e3          	bltz	t1,12014 <printf_positional+0xd76>
   1170c:	006b2223          	sw	t1,4(s6)
   11710:	028b2703          	lw	a4,40(s6)
   11714:	56fd                	li	a3,-1
   11716:	02d70263          	beq	a4,a3,1173a <printf_positional+0x49c>
   1171a:	76fd                	lui	a3,0xfffff
   1171c:	73868693          	addi	a3,a3,1848 # fffffffffffff738 <__BSS_END__+0xfffffffffff8c0c0>
   11720:	96a2                	add	a3,a3,s0
   11722:	6294                	ld	a3,0(a3)
   11724:	0712                	slli	a4,a4,0x4
   11726:	9736                	add	a4,a4,a3
   11728:	4314                	lw	a3,0(a4)
   1172a:	8736                	mv	a4,a3
   1172c:	0006d363          	bgez	a3,11732 <printf_positional+0x494>
   11730:	577d                	li	a4,-1
   11732:	00070e1b          	sext.w	t3,a4
   11736:	00eb2023          	sw	a4,0(s6)
   1173a:	00062717          	auipc	a4,0x62
   1173e:	c5e73703          	ld	a4,-930(a4) # 73398 <__printf_function_table>
   11742:	c719                	beqz	a4,11750 <printf_positional+0x4b2>
   11744:	003b9693          	slli	a3,s7,0x3
   11748:	9736                	add	a4,a4,a3
   1174a:	630c                	ld	a1,0(a4)
   1174c:	e60599e3          	bnez	a1,115be <printf_positional+0x320>
   11750:	fe0b871b          	addiw	a4,s7,-32
   11754:	0ff77713          	zext.b	a4,a4
   11758:	05a00693          	li	a3,90
   1175c:	26e6fc63          	bgeu	a3,a4,119d4 <printf_positional+0x736>
   11760:	008cb783          	ld	a5,8(s9)
   11764:	010cb703          	ld	a4,16(s9)
   11768:	00e79463          	bne	a5,a4,11770 <printf_positional+0x4d2>
   1176c:	3780106f          	j	12ae4 <printf_positional+0x1846>
   11770:	00178713          	addi	a4,a5,1
   11774:	00ecb423          	sd	a4,8(s9)
   11778:	02500713          	li	a4,37
   1177c:	00e78023          	sb	a4,0(a5)
   11780:	00cb5783          	lhu	a5,12(s6)
   11784:	0087f713          	andi	a4,a5,8
   11788:	c319                	beqz	a4,1178e <printf_positional+0x4f0>
   1178a:	0900106f          	j	1281a <printf_positional+0x157c>
   1178e:	0807f713          	andi	a4,a5,128
   11792:	c319                	beqz	a4,11798 <printf_positional+0x4fa>
   11794:	0620106f          	j	127f6 <printf_positional+0x1558>
   11798:	0407f713          	andi	a4,a5,64
   1179c:	c319                	beqz	a4,117a2 <printf_positional+0x504>
   1179e:	1360106f          	j	128d4 <printf_positional+0x1636>
   117a2:	0107f713          	andi	a4,a5,16
   117a6:	c319                	beqz	a4,117ac <printf_positional+0x50e>
   117a8:	2e80106f          	j	12a90 <printf_positional+0x17f2>
   117ac:	0207f793          	andi	a5,a5,32
   117b0:	c399                	beqz	a5,117b6 <printf_positional+0x518>
   117b2:	1020106f          	j	128b4 <printf_positional+0x1616>
   117b6:	010b2783          	lw	a5,16(s6)
   117ba:	03000713          	li	a4,48
   117be:	00e79463          	bne	a5,a4,117c6 <printf_positional+0x528>
   117c2:	3060106f          	j	12ac8 <printf_positional+0x182a>
   117c6:	00cb5783          	lhu	a5,12(s6)
   117ca:	83ad                	srli	a5,a5,0xb
   117cc:	8b85                	andi	a5,a5,1
   117ce:	c399                	beqz	a5,117d4 <printf_positional+0x536>
   117d0:	0c40106f          	j	12894 <printf_positional+0x15f6>
   117d4:	004b2503          	lw	a0,4(s6)
   117d8:	c119                	beqz	a0,117de <printf_positional+0x540>
   117da:	0640106f          	j	1283e <printf_positional+0x15a0>
   117de:	000b2703          	lw	a4,0(s6)
   117e2:	57fd                	li	a5,-1
   117e4:	06f70463          	beq	a4,a5,1184c <printf_positional+0x5ae>
   117e8:	008cb783          	ld	a5,8(s9)
   117ec:	010cb703          	ld	a4,16(s9)
   117f0:	00e79463          	bne	a5,a4,117f8 <printf_positional+0x55a>
   117f4:	4760106f          	j	12c6a <printf_positional+0x19cc>
   117f8:	00178713          	addi	a4,a5,1
   117fc:	00ecb423          	sd	a4,8(s9)
   11800:	02e00713          	li	a4,46
   11804:	00e78023          	sb	a4,0(a5)
   11808:	797d                	lui	s2,0xfffff
   1180a:	f9090793          	addi	a5,s2,-112 # ffffffffffffef90 <__BSS_END__+0xfffffffffff8b918>
   1180e:	00878933          	add	s2,a5,s0
   11812:	000b2503          	lw	a0,0(s6)
   11816:	7d490913          	addi	s2,s2,2004
   1181a:	4681                	li	a3,0
   1181c:	4629                	li	a2,10
   1181e:	85ca                	mv	a1,s2
   11820:	562180ef          	jal	29d82 <_itoa_word>
   11824:	84aa                	mv	s1,a0
   11826:	03257363          	bgeu	a0,s2,1184c <printf_positional+0x5ae>
   1182a:	008cb783          	ld	a5,8(s9)
   1182e:	010cb703          	ld	a4,16(s9)
   11832:	0485                	addi	s1,s1,1
   11834:	fff4c583          	lbu	a1,-1(s1)
   11838:	56e789e3          	beq	a5,a4,125aa <printf_positional+0x130c>
   1183c:	00178713          	addi	a4,a5,1
   11840:	00ecb423          	sd	a4,8(s9)
   11844:	00b78023          	sb	a1,0(a5)
   11848:	ff2491e3          	bne	s1,s2,1182a <printf_positional+0x58c>
   1184c:	008b2783          	lw	a5,8(s6)
   11850:	e00785e3          	beqz	a5,1165a <printf_positional+0x3bc>
   11854:	008cb703          	ld	a4,8(s9)
   11858:	010cb683          	ld	a3,16(s9)
   1185c:	0ff7f593          	zext.b	a1,a5
   11860:	00d71463          	bne	a4,a3,11868 <printf_positional+0x5ca>
   11864:	1a00106f          	j	12a04 <printf_positional+0x1766>
   11868:	00170793          	addi	a5,a4,1
   1186c:	00fcb423          	sd	a5,8(s9)
   11870:	00b70023          	sb	a1,0(a4)
   11874:	b3dd                	j	1165a <printf_positional+0x3bc>
   11876:	00b75613          	srli	a2,a4,0xb
   1187a:	8a05                	andi	a2,a2,1
   1187c:	10060263          	beqz	a2,11980 <printf_positional+0x6e2>
   11880:	0009b703          	ld	a4,0(s3)
   11884:	00870613          	addi	a2,a4,8
   11888:	00c9b023          	sd	a2,0(s3)
   1188c:	6318                	ld	a4,0(a4)
   1188e:	00eab023          	sd	a4,0(s5)
   11892:	b15d                	j	11538 <printf_positional+0x29a>
   11894:	0009b703          	ld	a4,0(s3)
   11898:	231c                	fld	fa5,0(a4)
   1189a:	0721                	addi	a4,a4,8
   1189c:	00e9b023          	sd	a4,0(s3)
   118a0:	00fab027          	fsd	fa5,0(s5)
   118a4:	b951                	j	11538 <printf_positional+0x29a>
   118a6:	8d66                	mv	s10,s9
   118a8:	be35                	j	113e4 <printf_positional+0x146>
   118aa:	8de6                	mv	s11,s9
   118ac:	020da023          	sw	zero,32(s11)
   118b0:	77fd                	lui	a5,0xfffff
   118b2:	6d878793          	addi	a5,a5,1752 # fffffffffffff6d8 <__BSS_END__+0xfffffffffff8c060>
   118b6:	97a2                	add	a5,a5,s0
   118b8:	b8043503          	ld	a0,-1152(s0)
   118bc:	639c                	ld	a5,0(a5)
   118be:	00f50463          	beq	a0,a5,118c6 <printf_positional+0x628>
   118c2:	049060ef          	jal	1810a <__free>
   118c6:	77fd                	lui	a5,0xfffff
   118c8:	f9078713          	addi	a4,a5,-112 # ffffffffffffef90 <__BSS_END__+0xfffffffffff8b918>
   118cc:	9722                	add	a4,a4,s0
   118ce:	7e073503          	ld	a0,2016(a4)
   118d2:	7f070793          	addi	a5,a4,2032
   118d6:	00f50463          	beq	a0,a5,118de <printf_positional+0x640>
   118da:	031060ef          	jal	1810a <__free>
   118de:	72fd                	lui	t0,0xfffff
   118e0:	68028293          	addi	t0,t0,1664 # fffffffffffff680 <__BSS_END__+0xfffffffffff8c008>
   118e4:	00540133          	add	sp,s0,t0
   118e8:	7f010113          	addi	sp,sp,2032
   118ec:	60ba                	ld	ra,392(sp)
   118ee:	641a                	ld	s0,384(sp)
   118f0:	74f6                	ld	s1,376(sp)
   118f2:	7956                	ld	s2,368(sp)
   118f4:	79b6                	ld	s3,360(sp)
   118f6:	7a16                	ld	s4,352(sp)
   118f8:	6af6                	ld	s5,344(sp)
   118fa:	6b56                	ld	s6,336(sp)
   118fc:	6bb6                	ld	s7,328(sp)
   118fe:	6c16                	ld	s8,320(sp)
   11900:	7cf2                	ld	s9,312(sp)
   11902:	7d52                	ld	s10,304(sp)
   11904:	7db2                	ld	s11,296(sp)
   11906:	6159                	addi	sp,sp,400
   11908:	8082                	ret
   1190a:	77fd                	lui	a5,0xfffff
   1190c:	6b878793          	addi	a5,a5,1720 # fffffffffffff6b8 <__BSS_END__+0xfffffffffff8c040>
   11910:	97a2                	add	a5,a5,s0
   11912:	639c                	ld	a5,0(a5)
   11914:	c3c5                	beqz	a5,119b4 <printf_positional+0x716>
   11916:	00039517          	auipc	a0,0x39
   1191a:	20250513          	addi	a0,a0,514 # 4ab18 <__PRETTY_FUNCTION__.1+0x60>
   1191e:	713020ef          	jal	14830 <__libc_fatal>
   11922:	10000613          	li	a2,256
   11926:	04c71d63          	bne	a4,a2,11980 <printf_positional+0x6e2>
   1192a:	0009b703          	ld	a4,0(s3)
   1192e:	6310                	ld	a2,0(a4)
   11930:	0721                	addi	a4,a4,8
   11932:	00e9b023          	sd	a4,0(s3)
   11936:	00cab023          	sd	a2,0(s5)
   1193a:	befd                	j	11538 <printf_positional+0x29a>
   1193c:	777d                	lui	a4,0xfffff
   1193e:	73070713          	addi	a4,a4,1840 # fffffffffffff730 <__BSS_END__+0xfffffffffff8c0b8>
   11942:	9722                	add	a4,a4,s0
   11944:	6318                	ld	a4,0(a4)
   11946:	00177613          	andi	a2,a4,1
   1194a:	0009b703          	ld	a4,0(s3)
   1194e:	c219                	beqz	a2,11954 <printf_positional+0x6b6>
   11950:	0ec0106f          	j	12a3c <printf_positional+0x179e>
   11954:	073d                	addi	a4,a4,15
   11956:	9b41                	andi	a4,a4,-16
   11958:	630c                	ld	a1,0(a4)
   1195a:	6710                	ld	a2,8(a4)
   1195c:	0741                	addi	a4,a4,16
   1195e:	00e9b023          	sd	a4,0(s3)
   11962:	00bab023          	sd	a1,0(s5)
   11966:	00cab423          	sd	a2,8(s5)
   1196a:	b6f9                	j	11538 <printf_positional+0x29a>
   1196c:	0005c797          	auipc	a5,0x5c
   11970:	68c7b783          	ld	a5,1676(a5) # 6dff8 <_GLOBAL_OFFSET_TABLE_+0x278>
   11974:	9792                	add	a5,a5,tp
   11976:	639c                	ld	a5,0(a5)
   11978:	639c                	ld	a5,0(a5)
   1197a:	63bc                	ld	a5,64(a5)
   1197c:	e81c                	sd	a5,16(s0)
   1197e:	bac1                	j	1134e <printf_positional+0xb0>
   11980:	00062e17          	auipc	t3,0x62
   11984:	cf0e0e13          	addi	t3,t3,-784 # 73670 <__printf_va_arg_table>
   11988:	000e3603          	ld	a2,0(t3)
   1198c:	c219                	beqz	a2,11992 <printf_positional+0x6f4>
   1198e:	25c0106f          	j	12bea <printf_positional+0x194c>
   11992:	4641                	li	a2,16
   11994:	4581                	li	a1,0
   11996:	8556                	mv	a0,s5
   11998:	197070ef          	jal	1932e <memset>
   1199c:	10700313          	li	t1,263
   119a0:	20000893          	li	a7,512
   119a4:	40000813          	li	a6,1024
   119a8:	56fd                	li	a3,-1
   119aa:	00039797          	auipc	a5,0x39
   119ae:	1e678793          	addi	a5,a5,486 # 4ab90 <null+0x8>
   119b2:	b659                	j	11538 <printf_positional+0x29a>
   119b4:	00039697          	auipc	a3,0x39
   119b8:	1bc68693          	addi	a3,a3,444 # 4ab70 <__PRETTY_FUNCTION__.1>
   119bc:	4a000613          	li	a2,1184
   119c0:	00039597          	auipc	a1,0x39
   119c4:	11858593          	addi	a1,a1,280 # 4aad8 <__PRETTY_FUNCTION__.1+0x20>
   119c8:	00039517          	auipc	a0,0x39
   119cc:	12850513          	addi	a0,a0,296 # 4aaf0 <__PRETTY_FUNCTION__.1+0x38>
   119d0:	133130ef          	jal	25302 <__libc_assert_fail>
   119d4:	0ffdfd93          	zext.b	s11,s11
   119d8:	3d81                	addiw	s11,s11,-32
   119da:	00039717          	auipc	a4,0x39
   119de:	1d670713          	addi	a4,a4,470 # 4abb0 <jump_table>
   119e2:	976e                	add	a4,a4,s11
   119e4:	00074683          	lbu	a3,0(a4)
   119e8:	00058717          	auipc	a4,0x58
   119ec:	ad070713          	addi	a4,a4,-1328 # 694b8 <step4_jumps.0>
   119f0:	2481                	sext.w	s1,s1
   119f2:	068e                	slli	a3,a3,0x3
   119f4:	9736                	add	a4,a4,a3
   119f6:	6314                	ld	a3,0(a4)
   119f8:	000f8d9b          	sext.w	s11,t6
   119fc:	2781                	sext.w	a5,a5
   119fe:	2d01                	sext.w	s10,s10
   11a00:	8682                	jr	a3
   11a02:	76fd                	lui	a3,0xfffff
   11a04:	73868693          	addi	a3,a3,1848 # fffffffffffff738 <__BSS_END__+0xfffffffffff8c0c0>
   11a08:	030b2783          	lw	a5,48(s6)
   11a0c:	96a2                	add	a3,a3,s0
   11a0e:	6294                	ld	a3,0(a3)
   11a10:	777d                	lui	a4,0xfffff
   11a12:	f9070713          	addi	a4,a4,-112 # ffffffffffffef90 <__BSS_END__+0xfffffffffff8b918>
   11a16:	0792                	slli	a5,a5,0x4
   11a18:	97b6                	add	a5,a5,a3
   11a1a:	9722                	add	a4,a4,s0
   11a1c:	7cf73423          	sd	a5,1992(a4)
   11a20:	77fd                	lui	a5,0xfffff
   11a22:	68878793          	addi	a5,a5,1672 # fffffffffffff688 <__BSS_END__+0xfffffffffff8c010>
   11a26:	97a2                	add	a5,a5,s0
   11a28:	639c                	ld	a5,0(a5)
   11a2a:	c399                	beqz	a5,11a30 <printf_positional+0x792>
   11a2c:	0880106f          	j	12ab4 <printf_positional+0x1816>
   11a30:	00cb5703          	lhu	a4,12(s6)
   11a34:	76fd                	lui	a3,0xfffff
   11a36:	16fd                	addi	a3,a3,-1 # ffffffffffffefff <__BSS_END__+0xfffffffffff8b987>
   11a38:	8f75                	and	a4,a4,a3
   11a3a:	00eb1623          	sh	a4,12(s6)
   11a3e:	777d                	lui	a4,0xfffff
   11a40:	69070713          	addi	a4,a4,1680 # fffffffffffff690 <__BSS_END__+0xfffffffffff8c018>
   11a44:	9722                	add	a4,a4,s0
   11a46:	6318                	ld	a4,0(a4)
   11a48:	008b2783          	lw	a5,8(s6)
   11a4c:	004706b3          	add	a3,a4,tp
   11a50:	fdf7f793          	andi	a5,a5,-33
   11a54:	04100713          	li	a4,65
   11a58:	628c                	ld	a1,0(a3)
   11a5a:	2ce78ae3          	beq	a5,a4,1252e <printf_positional+0x1290>
   11a5e:	77fd                	lui	a5,0xfffff
   11a60:	75878793          	addi	a5,a5,1880 # fffffffffffff758 <__BSS_END__+0xfffffffffff8c0e0>
   11a64:	008786b3          	add	a3,a5,s0
   11a68:	865a                	mv	a2,s6
   11a6a:	8566                	mv	a0,s9
   11a6c:	2dc1a0ef          	jal	2bd48 <__printf_fp_l_buffer>
   11a70:	b6ed                	j	1165a <printf_positional+0x3bc>
   11a72:	77fd                	lui	a5,0xfffff
   11a74:	73078793          	addi	a5,a5,1840 # fffffffffffff730 <__BSS_END__+0xfffffffffff8c0b8>
   11a78:	97a2                	add	a5,a5,s0
   11a7a:	0067b023          	sd	t1,0(a5)
   11a7e:	77fd                	lui	a5,0xfffff
   11a80:	68078793          	addi	a5,a5,1664 # fffffffffffff680 <__BSS_END__+0xfffffffffff8c008>
   11a84:	97a2                	add	a5,a5,s0
   11a86:	777d                	lui	a4,0xfffff
   11a88:	6390                	ld	a2,0(a5)
   11a8a:	6f070713          	addi	a4,a4,1776 # fffffffffffff6f0 <__BSS_END__+0xfffffffffff8c078>
   11a8e:	9722                	add	a4,a4,s0
   11a90:	6308                	ld	a0,0(a4)
   11a92:	777d                	lui	a4,0xfffff
   11a94:	00063023          	sd	zero,0(a2)
   11a98:	73870713          	addi	a4,a4,1848 # fffffffffffff738 <__BSS_END__+0xfffffffffff8c0c0>
   11a9c:	030b2783          	lw	a5,48(s6)
   11aa0:	9722                	add	a4,a4,s0
   11aa2:	6318                	ld	a4,0(a4)
   11aa4:	0792                	slli	a5,a5,0x4
   11aa6:	97ba                	add	a5,a5,a4
   11aa8:	438c                	lw	a1,0(a5)
   11aaa:	00c080ef          	jal	19ab6 <__wcrtomb>
   11aae:	777d                	lui	a4,0xfffff
   11ab0:	73070713          	addi	a4,a4,1840 # fffffffffffff730 <__BSS_END__+0xfffffffffff8c0b8>
   11ab4:	9722                	add	a4,a4,s0
   11ab6:	57fd                	li	a5,-1
   11ab8:	00073303          	ld	t1,0(a4)
   11abc:	84aa                	mv	s1,a0
   11abe:	def506e3          	beq	a0,a5,118aa <printf_positional+0x60c>
   11ac2:	40a309bb          	subw	s3,t1,a0
   11ac6:	00098a1b          	sext.w	s4,s3
   11aca:	300915e3          	bnez	s2,125d4 <printf_positional+0x1336>
   11ace:	01405a63          	blez	s4,11ae2 <printf_positional+0x844>
   11ad2:	02099613          	slli	a2,s3,0x20
   11ad6:	9201                	srli	a2,a2,0x20
   11ad8:	8566                	mv	a0,s9
   11ada:	02000593          	li	a1,32
   11ade:	5c8180ef          	jal	2a0a6 <__printf_buffer_pad_1>
   11ae2:	77fd                	lui	a5,0xfffff
   11ae4:	6f078793          	addi	a5,a5,1776 # fffffffffffff6f0 <__BSS_END__+0xfffffffffff8c078>
   11ae8:	97a2                	add	a5,a5,s0
   11aea:	638c                	ld	a1,0(a5)
   11aec:	8626                	mv	a2,s1
   11aee:	8566                	mv	a0,s9
   11af0:	09d180ef          	jal	2a38c <__printf_buffer_write>
   11af4:	b69d                	j	1165a <printf_positional+0x3bc>
   11af6:	777d                	lui	a4,0xfffff
   11af8:	6b870713          	addi	a4,a4,1720 # fffffffffffff6b8 <__BSS_END__+0xfffffffffff8c040>
   11afc:	9722                	add	a4,a4,s0
   11afe:	6318                	ld	a4,0(a4)
   11b00:	c30d                	beqz	a4,11b22 <printf_positional+0x884>
   11b02:	777d                	lui	a4,0xfffff
   11b04:	6c870713          	addi	a4,a4,1736 # fffffffffffff6c8 <__BSS_END__+0xfffffffffff8c050>
   11b08:	9722                	add	a4,a4,s0
   11b0a:	6318                	ld	a4,0(a4)
   11b0c:	740704e3          	beqz	a4,12a54 <printf_positional+0x17b6>
   11b10:	777d                	lui	a4,0xfffff
   11b12:	6c870713          	addi	a4,a4,1736 # fffffffffffff6c8 <__BSS_END__+0xfffffffffff8c050>
   11b16:	9722                	add	a4,a4,s0
   11b18:	6318                	ld	a4,0(a4)
   11b1a:	00075463          	bgez	a4,11b22 <printf_positional+0x884>
   11b1e:	4040106f          	j	12f22 <printf_positional+0x1c84>
   11b22:	777d                	lui	a4,0xfffff
   11b24:	73070713          	addi	a4,a4,1840 # fffffffffffff730 <__BSS_END__+0xfffffffffff8c0b8>
   11b28:	9722                	add	a4,a4,s0
   11b2a:	e31c                	sd	a5,0(a4)
   11b2c:	77fd                	lui	a5,0xfffff
   11b2e:	73878793          	addi	a5,a5,1848 # fffffffffffff738 <__BSS_END__+0xfffffffffff8c0c0>
   11b32:	030b2683          	lw	a3,48(s6)
   11b36:	97a2                	add	a5,a5,s0
   11b38:	639c                	ld	a5,0(a5)
   11b3a:	0692                	slli	a3,a3,0x4
   11b3c:	8566                	mv	a0,s9
   11b3e:	96be                	add	a3,a3,a5
   11b40:	6284                	ld	s1,0(a3)
   11b42:	522180ef          	jal	2a064 <__printf_buffer_done>
   11b46:	77fd                	lui	a5,0xfffff
   11b48:	73078793          	addi	a5,a5,1840 # fffffffffffff730 <__BSS_END__+0xfffffffffff8c0b8>
   11b4c:	97a2                	add	a5,a5,s0
   11b4e:	639c                	ld	a5,0(a5)
   11b50:	3c0d0de3          	beqz	s10,1272a <printf_positional+0x148c>
   11b54:	1502                	slli	a0,a0,0x20
   11b56:	9101                	srli	a0,a0,0x20
   11b58:	e088                	sd	a0,0(s1)
   11b5a:	b601                	j	1165a <printf_positional+0x3bc>
   11b5c:	777d                	lui	a4,0xfffff
   11b5e:	73870713          	addi	a4,a4,1848 # fffffffffffff738 <__BSS_END__+0xfffffffffff8c0c0>
   11b62:	030b2783          	lw	a5,48(s6)
   11b66:	9722                	add	a4,a4,s0
   11b68:	6318                	ld	a4,0(a4)
   11b6a:	0792                	slli	a5,a5,0x4
   11b6c:	97ba                	add	a5,a5,a4
   11b6e:	639c                	ld	a5,0(a5)
   11b70:	42078c63          	beqz	a5,11fa8 <printf_positional+0xd0a>
   11b74:	777d                	lui	a4,0xfffff
   11b76:	72870713          	addi	a4,a4,1832 # fffffffffffff728 <__BSS_END__+0xfffffffffff8c0b0>
   11b7a:	9722                	add	a4,a4,s0
   11b7c:	e31c                	sd	a5,0(a4)
   11b7e:	77fd                	lui	a5,0xfffff
   11b80:	73078793          	addi	a5,a5,1840 # fffffffffffff730 <__BSS_END__+0xfffffffffff8c0b8>
   11b84:	97a2                	add	a5,a5,s0
   11b86:	0007b023          	sd	zero,0(a5)
   11b8a:	07800b93          	li	s7,120
   11b8e:	4485                	li	s1,1
   11b90:	47c1                	li	a5,16
   11b92:	777d                	lui	a4,0xfffff
   11b94:	71870713          	addi	a4,a4,1816 # fffffffffffff718 <__BSS_END__+0xfffffffffff8c0a0>
   11b98:	9722                	add	a4,a4,s0
   11b9a:	e31c                	sd	a5,0(a4)
   11b9c:	4d01                	li	s10,0
   11b9e:	777d                	lui	a4,0xfffff
   11ba0:	70870713          	addi	a4,a4,1800 # fffffffffffff708 <__BSS_END__+0xfffffffffff8c090>
   11ba4:	000a879b          	sext.w	a5,s5
   11ba8:	9722                	add	a4,a4,s0
   11baa:	e31c                	sd	a5,0(a4)
   11bac:	77fd                	lui	a5,0xfffff
   11bae:	6f878793          	addi	a5,a5,1784 # fffffffffffff6f8 <__BSS_END__+0xfffffffffff8c080>
   11bb2:	97a2                	add	a5,a5,s0
   11bb4:	639c                	ld	a5,0(a5)
   11bb6:	777d                	lui	a4,0xfffff
   11bb8:	71070713          	addi	a4,a4,1808 # fffffffffffff710 <__BSS_END__+0xfffffffffff8c098>
   11bbc:	3e878793          	addi	a5,a5,1000
   11bc0:	9722                	add	a4,a4,s0
   11bc2:	e31c                	sd	a5,0(a4)
   11bc4:	0a0e4de3          	bltz	t3,1247e <printf_positional+0x11e0>
   11bc8:	8af2                	mv	s5,t3
   11bca:	460e1363          	bnez	t3,12030 <printf_positional+0xd92>
   11bce:	77fd                	lui	a5,0xfffff
   11bd0:	72878793          	addi	a5,a5,1832 # fffffffffffff728 <__BSS_END__+0xfffffffffff8c0b0>
   11bd4:	97a2                	add	a5,a5,s0
   11bd6:	639c                	ld	a5,0(a5)
   11bd8:	44079b63          	bnez	a5,1202e <printf_positional+0xd90>
   11bdc:	777d                	lui	a4,0xfffff
   11bde:	71870713          	addi	a4,a4,1816 # fffffffffffff718 <__BSS_END__+0xfffffffffff8c0a0>
   11be2:	9722                	add	a4,a4,s0
   11be4:	6318                	ld	a4,0(a4)
   11be6:	47a1                	li	a5,8
   11be8:	66f70163          	beq	a4,a5,1224a <printf_positional+0xfac>
   11bec:	77fd                	lui	a5,0xfffff
   11bee:	71078793          	addi	a5,a5,1808 # fffffffffffff710 <__BSS_END__+0xfffffffffff8c098>
   11bf2:	97a2                	add	a5,a5,s0
   11bf4:	639c                	ld	a5,0(a5)
   11bf6:	777d                	lui	a4,0xfffff
   11bf8:	70070713          	addi	a4,a4,1792 # fffffffffffff700 <__BSS_END__+0xfffffffffff8c088>
   11bfc:	76fd                	lui	a3,0xfffff
   11bfe:	9722                	add	a4,a4,s0
   11c00:	6d068693          	addi	a3,a3,1744 # fffffffffffff6d0 <__BSS_END__+0xfffffffffff8c058>
   11c04:	e31c                	sd	a5,0(a4)
   11c06:	96a2                	add	a3,a3,s0
   11c08:	02000713          	li	a4,32
   11c0c:	e298                	sd	a4,0(a3)
   11c0e:	777d                	lui	a4,0xfffff
   11c10:	73070713          	addi	a4,a4,1840 # fffffffffffff730 <__BSS_END__+0xfffffffffff8c0b8>
   11c14:	9722                	add	a4,a4,s0
   11c16:	6318                	ld	a4,0(a4)
   11c18:	4a81                	li	s5,0
   11c1a:	4781                	li	a5,0
   11c1c:	48071e63          	bnez	a4,120b8 <printf_positional+0xe1a>
   11c20:	777d                	lui	a4,0xfffff
   11c22:	70870713          	addi	a4,a4,1800 # fffffffffffff708 <__BSS_END__+0xfffffffffff8c090>
   11c26:	40fa8ab3          	sub	s5,s5,a5
   11c2a:	9722                	add	a4,a4,s0
   11c2c:	fffacd93          	not	s11,s5
   11c30:	6318                	ld	a4,0(a4)
   11c32:	43fddd93          	srai	s11,s11,0x3f
   11c36:	01bafdb3          	and	s11,s5,s11
   11c3a:	000d869b          	sext.w	a3,s11
   11c3e:	6a071663          	bnez	a4,122ea <printf_positional+0x104c>
   11c42:	00078f1b          	sext.w	t5,a5
   11c46:	4a81                	li	s5,0
   11c48:	53cf4863          	blt	t5,t3,12178 <printf_positional+0xeda>
   11c4c:	777d                	lui	a4,0xfffff
   11c4e:	72870713          	addi	a4,a4,1832 # fffffffffffff728 <__BSS_END__+0xfffffffffff8c0b0>
   11c52:	9722                	add	a4,a4,s0
   11c54:	6318                	ld	a4,0(a4)
   11c56:	64070063          	beqz	a4,12296 <printf_positional+0xff8>
   11c5a:	62048e63          	beqz	s1,12296 <printf_positional+0xff8>
   11c5e:	340910e3          	bnez	s2,1279e <printf_positional+0x1500>
   11c62:	777d                	lui	a4,0xfffff
   11c64:	71870713          	addi	a4,a4,1816 # fffffffffffff718 <__BSS_END__+0xfffffffffff8c0a0>
   11c68:	9722                	add	a4,a4,s0
   11c6a:	6318                	ld	a4,0(a4)
   11c6c:	65c1                	lui	a1,0x10
   11c6e:	0591                	addi	a1,a1,4 # 10004 <__ehdr_start+0x4>
   11c70:	01e6853b          	addw	a0,a3,t5
   11c74:	00e5d5b3          	srl	a1,a1,a4
   11c78:	40a3063b          	subw	a2,t1,a0
   11c7c:	8985                	andi	a1,a1,1
   11c7e:	8532                	mv	a0,a2
   11c80:	38059763          	bnez	a1,1200e <printf_positional+0xd70>
   11c84:	777d                	lui	a4,0xfffff
   11c86:	71870713          	addi	a4,a4,1816 # fffffffffffff718 <__BSS_END__+0xfffffffffff8c0a0>
   11c8a:	9722                	add	a4,a4,s0
   11c8c:	6318                	ld	a4,0(a4)
   11c8e:	45a1                	li	a1,8
   11c90:	00b71463          	bne	a4,a1,11c98 <printf_positional+0x9fa>
   11c94:	367d                	addiw	a2,a2,-1
   11c96:	8926                	mv	s2,s1
   11c98:	01aa65b3          	or	a1,s4,s10
   11c9c:	00b9e5b3          	or	a1,s3,a1
   11ca0:	60059763          	bnez	a1,122ae <printf_positional+0x1010>
   11ca4:	75fd                	lui	a1,0xfffff
   11ca6:	6d058593          	addi	a1,a1,1744 # fffffffffffff6d0 <__BSS_END__+0xfffffffffff8c058>
   11caa:	95a2                	add	a1,a1,s0
   11cac:	618c                	ld	a1,0(a1)
   11cae:	02000713          	li	a4,32
   11cb2:	1ae581e3          	beq	a1,a4,12654 <printf_positional+0x13b6>
   11cb6:	9eb1                	addw	a3,a3,a2
   11cb8:	777d                	lui	a4,0xfffff
   11cba:	72870713          	addi	a4,a4,1832 # fffffffffffff728 <__BSS_END__+0xfffffffffff8c0b0>
   11cbe:	9722                	add	a4,a4,s0
   11cc0:	6318                	ld	a4,0(a4)
   11cc2:	cf11                	beqz	a4,11cde <printf_positional+0xa40>
   11cc4:	cc89                	beqz	s1,11cde <printf_positional+0xa40>
   11cc6:	767d                	lui	a2,0xfffff
   11cc8:	71860613          	addi	a2,a2,1816 # fffffffffffff718 <__BSS_END__+0xfffffffffff8c0a0>
   11ccc:	9622                	add	a2,a2,s0
   11cce:	6210                	ld	a2,0(a2)
   11cd0:	6741                	lui	a4,0x10
   11cd2:	0711                	addi	a4,a4,4 # 10004 <__ehdr_start+0x4>
   11cd4:	00c75733          	srl	a4,a4,a2
   11cd8:	8b05                	andi	a4,a4,1
   11cda:	28071863          	bnez	a4,11f6a <printf_positional+0xccc>
   11cde:	22d04963          	bgtz	a3,11f10 <printf_positional+0xc72>
   11ce2:	24091963          	bnez	s2,11f34 <printf_positional+0xc96>
   11ce6:	260a8763          	beqz	s5,11f54 <printf_positional+0xcb6>
   11cea:	777d                	lui	a4,0xfffff
   11cec:	70870713          	addi	a4,a4,1800 # fffffffffffff708 <__BSS_END__+0xfffffffffff8c090>
   11cf0:	9722                	add	a4,a4,s0
   11cf2:	6318                	ld	a4,0(a4)
   11cf4:	4781                	li	a5,0
   11cf6:	cb09                	beqz	a4,11d08 <printf_positional+0xa6a>
   11cf8:	77fd                	lui	a5,0xfffff
   11cfa:	71878793          	addi	a5,a5,1816 # fffffffffffff718 <__BSS_END__+0xfffffffffff8c0a0>
   11cfe:	97a2                	add	a5,a5,s0
   11d00:	639c                	ld	a5,0(a5)
   11d02:	17d9                	addi	a5,a5,-10
   11d04:	0017b793          	seqz	a5,a5
   11d08:	76fd                	lui	a3,0xfffff
   11d0a:	767d                	lui	a2,0xfffff
   11d0c:	75fd                	lui	a1,0xfffff
   11d0e:	71068693          	addi	a3,a3,1808 # fffffffffffff710 <__BSS_END__+0xfffffffffff8c098>
   11d12:	70060613          	addi	a2,a2,1792 # fffffffffffff700 <__BSS_END__+0xfffffffffff8c088>
   11d16:	6f058593          	addi	a1,a1,1776 # fffffffffffff6f0 <__BSS_END__+0xfffffffffff8c078>
   11d1a:	96a2                	add	a3,a3,s0
   11d1c:	9622                	add	a2,a2,s0
   11d1e:	95a2                	add	a1,a1,s0
   11d20:	6818                	ld	a4,16(s0)
   11d22:	6294                	ld	a3,0(a3)
   11d24:	6210                	ld	a2,0(a2)
   11d26:	618c                	ld	a1,0(a1)
   11d28:	8566                	mv	a0,s9
   11d2a:	ca8ff0ef          	jal	111d2 <group_number>
   11d2e:	b235                	j	1165a <printf_positional+0x3bc>
   11d30:	d40d11e3          	bnez	s10,11a72 <printf_positional+0x7d4>
   11d34:	fff3049b          	addiw	s1,t1,-1
   11d38:	00091463          	bnez	s2,11d40 <printf_positional+0xaa2>
   11d3c:	48904ae3          	bgtz	s1,129d0 <printf_positional+0x1732>
   11d40:	767d                	lui	a2,0xfffff
   11d42:	73860613          	addi	a2,a2,1848 # fffffffffffff738 <__BSS_END__+0xfffffffffff8c0c0>
   11d46:	030b2783          	lw	a5,48(s6)
   11d4a:	9622                	add	a2,a2,s0
   11d4c:	6210                	ld	a2,0(a2)
   11d4e:	008cb703          	ld	a4,8(s9)
   11d52:	010cb683          	ld	a3,16(s9)
   11d56:	0792                	slli	a5,a5,0x4
   11d58:	97b2                	add	a5,a5,a2
   11d5a:	0007c583          	lbu	a1,0(a5)
   11d5e:	70d701e3          	beq	a4,a3,12c60 <printf_positional+0x19c2>
   11d62:	00170793          	addi	a5,a4,1
   11d66:	00fcb423          	sd	a5,8(s9)
   11d6a:	00b70023          	sb	a1,0(a4)
   11d6e:	8e0906e3          	beqz	s2,1165a <printf_positional+0x3bc>
   11d72:	8e9054e3          	blez	s1,1165a <printf_positional+0x3bc>
   11d76:	8626                	mv	a2,s1
   11d78:	02000593          	li	a1,32
   11d7c:	8566                	mv	a0,s9
   11d7e:	328180ef          	jal	2a0a6 <__printf_buffer_pad_1>
   11d82:	b8e1                	j	1165a <printf_positional+0x3bc>
   11d84:	76fd                	lui	a3,0xfffff
   11d86:	71868693          	addi	a3,a3,1816 # fffffffffffff718 <__BSS_END__+0xfffffffffff8c0a0>
   11d8a:	4709                	li	a4,2
   11d8c:	96a2                	add	a3,a3,s0
   11d8e:	e298                	sd	a4,0(a3)
   11d90:	777d                	lui	a4,0xfffff
   11d92:	73870713          	addi	a4,a4,1848 # fffffffffffff738 <__BSS_END__+0xfffffffffff8c0c0>
   11d96:	030b2683          	lw	a3,48(s6)
   11d9a:	9722                	add	a4,a4,s0
   11d9c:	6318                	ld	a4,0(a4)
   11d9e:	0692                	slli	a3,a3,0x4
   11da0:	96ba                	add	a3,a3,a4
   11da2:	020d0d63          	beqz	s10,11ddc <printf_positional+0xb3e>
   11da6:	629c                	ld	a5,0(a3)
   11da8:	777d                	lui	a4,0xfffff
   11daa:	72870713          	addi	a4,a4,1832 # fffffffffffff728 <__BSS_END__+0xfffffffffff8c0b0>
   11dae:	9722                	add	a4,a4,s0
   11db0:	e31c                	sd	a5,0(a4)
   11db2:	4981                	li	s3,0
   11db4:	4a01                	li	s4,0
   11db6:	4d01                	li	s10,0
   11db8:	b3dd                	j	11b9e <printf_positional+0x900>
   11dba:	76fd                	lui	a3,0xfffff
   11dbc:	71868693          	addi	a3,a3,1816 # fffffffffffff718 <__BSS_END__+0xfffffffffff8c0a0>
   11dc0:	4721                	li	a4,8
   11dc2:	96a2                	add	a3,a3,s0
   11dc4:	e298                	sd	a4,0(a3)
   11dc6:	777d                	lui	a4,0xfffff
   11dc8:	73870713          	addi	a4,a4,1848 # fffffffffffff738 <__BSS_END__+0xfffffffffff8c0c0>
   11dcc:	030b2683          	lw	a3,48(s6)
   11dd0:	9722                	add	a4,a4,s0
   11dd2:	6318                	ld	a4,0(a4)
   11dd4:	0692                	slli	a3,a3,0x4
   11dd6:	96ba                	add	a3,a3,a4
   11dd8:	fc0d17e3          	bnez	s10,11da6 <printf_positional+0xb08>
   11ddc:	4294                	lw	a3,0(a3)
   11dde:	76078363          	beqz	a5,12544 <printf_positional+0x12a6>
   11de2:	0ff6f793          	zext.b	a5,a3
   11de6:	777d                	lui	a4,0xfffff
   11de8:	72870713          	addi	a4,a4,1832 # fffffffffffff728 <__BSS_END__+0xfffffffffff8c0b0>
   11dec:	9722                	add	a4,a4,s0
   11dee:	e31c                	sd	a5,0(a4)
   11df0:	4981                	li	s3,0
   11df2:	4a01                	li	s4,0
   11df4:	b36d                	j	11b9e <printf_positional+0x900>
   11df6:	777d                	lui	a4,0xfffff
   11df8:	73870713          	addi	a4,a4,1848 # fffffffffffff738 <__BSS_END__+0xfffffffffff8c0c0>
   11dfc:	030b2783          	lw	a5,48(s6)
   11e00:	9722                	add	a4,a4,s0
   11e02:	6318                	ld	a4,0(a4)
   11e04:	0792                	slli	a5,a5,0x4
   11e06:	97ba                	add	a5,a5,a4
   11e08:	0007bd83          	ld	s11,0(a5)
   11e0c:	020d87e3          	beqz	s11,1263a <printf_positional+0x139c>
   11e10:	060d0c63          	beqz	s10,11e88 <printf_positional+0xbea>
   11e14:	00197713          	andi	a4,s2,1
   11e18:	869a                	mv	a3,t1
   11e1a:	8672                	mv	a2,t3
   11e1c:	85ee                	mv	a1,s11
   11e1e:	8566                	mv	a0,s9
   11e20:	a6eff0ef          	jal	1108e <outstring_converted_wide_string>
   11e24:	837ff06f          	j	1165a <printf_positional+0x3bc>
   11e28:	77fd                	lui	a5,0xfffff
   11e2a:	71078793          	addi	a5,a5,1808 # fffffffffffff710 <__BSS_END__+0xfffffffffff8c098>
   11e2e:	97a2                	add	a5,a5,s0
   11e30:	01c7b023          	sd	t3,0(a5)
   11e34:	77fd                	lui	a5,0xfffff
   11e36:	71878793          	addi	a5,a5,1816 # fffffffffffff718 <__BSS_END__+0xfffffffffff8c0a0>
   11e3a:	97a2                	add	a5,a5,s0
   11e3c:	0067b023          	sd	t1,0(a5)
   11e40:	77fd                	lui	a5,0xfffff
   11e42:	72878793          	addi	a5,a5,1832 # fffffffffffff728 <__BSS_END__+0xfffffffffff8c0b0>
   11e46:	97a2                	add	a5,a5,s0
   11e48:	01e7b023          	sd	t5,0(a5)
   11e4c:	060481e3          	beqz	s1,126ae <printf_positional+0x1410>
   11e50:	77fd                	lui	a5,0xfffff
   11e52:	6c078793          	addi	a5,a5,1728 # fffffffffffff6c0 <__BSS_END__+0xfffffffffff8c048>
   11e56:	97a2                	add	a5,a5,s0
   11e58:	6388                	ld	a0,0(a5)
   11e5a:	284020ef          	jal	140de <__get_errname>
   11e5e:	77fd                	lui	a5,0xfffff
   11e60:	72878793          	addi	a5,a5,1832 # fffffffffffff728 <__BSS_END__+0xfffffffffff8c0b0>
   11e64:	97a2                	add	a5,a5,s0
   11e66:	0007bf03          	ld	t5,0(a5)
   11e6a:	77fd                	lui	a5,0xfffff
   11e6c:	71878793          	addi	a5,a5,1816 # fffffffffffff718 <__BSS_END__+0xfffffffffff8c0a0>
   11e70:	97a2                	add	a5,a5,s0
   11e72:	0007b303          	ld	t1,0(a5)
   11e76:	77fd                	lui	a5,0xfffff
   11e78:	71078793          	addi	a5,a5,1808 # fffffffffffff710 <__BSS_END__+0xfffffffffff8c098>
   11e7c:	97a2                	add	a5,a5,s0
   11e7e:	0007be03          	ld	t3,0(a5)
   11e82:	8daa                	mv	s11,a0
   11e84:	280d85e3          	beqz	s11,1290e <printf_positional+0x1670>
   11e88:	05300793          	li	a5,83
   11e8c:	f8fb84e3          	beq	s7,a5,11e14 <printf_positional+0xb76>
   11e90:	57fd                	li	a5,-1
   11e92:	12fe1a63          	bne	t3,a5,11fc6 <printf_positional+0xd28>
   11e96:	77fd                	lui	a5,0xfffff
   11e98:	73078793          	addi	a5,a5,1840 # fffffffffffff730 <__BSS_END__+0xfffffffffff8c0b8>
   11e9c:	97a2                	add	a5,a5,s0
   11e9e:	856e                	mv	a0,s11
   11ea0:	0067b023          	sd	t1,0(a5)
   11ea4:	5f0070ef          	jal	19494 <strlen>
   11ea8:	aa0d                	j	11fda <printf_positional+0xd3c>
   11eaa:	040d05e3          	beqz	s10,126f4 <printf_positional+0x1456>
   11eae:	777d                	lui	a4,0xfffff
   11eb0:	73870713          	addi	a4,a4,1848 # fffffffffffff738 <__BSS_END__+0xfffffffffff8c0c0>
   11eb4:	030b2783          	lw	a5,48(s6)
   11eb8:	9722                	add	a4,a4,s0
   11eba:	6318                	ld	a4,0(a4)
   11ebc:	0792                	slli	a5,a5,0x4
   11ebe:	97ba                	add	a5,a5,a4
   11ec0:	639c                	ld	a5,0(a5)
   11ec2:	0a07cee3          	bltz	a5,1277e <printf_positional+0x14e0>
   11ec6:	777d                	lui	a4,0xfffff
   11ec8:	72870713          	addi	a4,a4,1832 # fffffffffffff728 <__BSS_END__+0xfffffffffff8c0b0>
   11ecc:	9722                	add	a4,a4,s0
   11ece:	e31c                	sd	a5,0(a4)
   11ed0:	47a9                	li	a5,10
   11ed2:	b1c1                	j	11b92 <printf_positional+0x8f4>
   11ed4:	008cb783          	ld	a5,8(s9)
   11ed8:	010cb703          	ld	a4,16(s9)
   11edc:	40e78be3          	beq	a5,a4,12af2 <printf_positional+0x1854>
   11ee0:	00178713          	addi	a4,a5,1
   11ee4:	00ecb423          	sd	a4,8(s9)
   11ee8:	02500713          	li	a4,37
   11eec:	00e78023          	sb	a4,0(a5)
   11ef0:	f6aff06f          	j	1165a <printf_positional+0x3bc>
   11ef4:	76fd                	lui	a3,0xfffff
   11ef6:	71868693          	addi	a3,a3,1816 # fffffffffffff718 <__BSS_END__+0xfffffffffff8c0a0>
   11efa:	4741                	li	a4,16
   11efc:	96a2                	add	a3,a3,s0
   11efe:	e298                	sd	a4,0(a3)
   11f00:	bd41                	j	11d90 <printf_positional+0xaf2>
   11f02:	76fd                	lui	a3,0xfffff
   11f04:	71868693          	addi	a3,a3,1816 # fffffffffffff718 <__BSS_END__+0xfffffffffff8c0a0>
   11f08:	4729                	li	a4,10
   11f0a:	96a2                	add	a3,a3,s0
   11f0c:	e298                	sd	a4,0(a3)
   11f0e:	b549                	j	11d90 <printf_positional+0xaf2>
   11f10:	777d                	lui	a4,0xfffff
   11f12:	73070713          	addi	a4,a4,1840 # fffffffffffff730 <__BSS_END__+0xfffffffffff8c0b8>
   11f16:	9722                	add	a4,a4,s0
   11f18:	8636                	mv	a2,a3
   11f1a:	03000593          	li	a1,48
   11f1e:	8566                	mv	a0,s9
   11f20:	e31c                	sd	a5,0(a4)
   11f22:	184180ef          	jal	2a0a6 <__printf_buffer_pad_1>
   11f26:	77fd                	lui	a5,0xfffff
   11f28:	73078793          	addi	a5,a5,1840 # fffffffffffff730 <__BSS_END__+0xfffffffffff8c0b8>
   11f2c:	97a2                	add	a5,a5,s0
   11f2e:	639c                	ld	a5,0(a5)
   11f30:	da090be3          	beqz	s2,11ce6 <printf_positional+0xa48>
   11f34:	008cb703          	ld	a4,8(s9)
   11f38:	010cb683          	ld	a3,16(s9)
   11f3c:	3cd702e3          	beq	a4,a3,12b00 <printf_positional+0x1862>
   11f40:	00170693          	addi	a3,a4,1
   11f44:	00dcb423          	sd	a3,8(s9)
   11f48:	03000693          	li	a3,48
   11f4c:	00d70023          	sb	a3,0(a4)
   11f50:	d80a9de3          	bnez	s5,11cea <printf_positional+0xa4c>
   11f54:	863e                	mv	a2,a5
   11f56:	77fd                	lui	a5,0xfffff
   11f58:	70078793          	addi	a5,a5,1792 # fffffffffffff700 <__BSS_END__+0xfffffffffff8c088>
   11f5c:	97a2                	add	a5,a5,s0
   11f5e:	638c                	ld	a1,0(a5)
   11f60:	8566                	mv	a0,s9
   11f62:	42a180ef          	jal	2a38c <__printf_buffer_write>
   11f66:	ef4ff06f          	j	1165a <printf_positional+0x3bc>
   11f6a:	008cb703          	ld	a4,8(s9)
   11f6e:	010cb603          	ld	a2,16(s9)
   11f72:	00c71463          	bne	a4,a2,11f7a <printf_positional+0xcdc>
   11f76:	74f0006f          	j	12ec4 <printf_positional+0x1c26>
   11f7a:	00170613          	addi	a2,a4,1
   11f7e:	00ccb423          	sd	a2,8(s9)
   11f82:	03000613          	li	a2,48
   11f86:	00c70023          	sb	a2,0(a4)
   11f8a:	008cb703          	ld	a4,8(s9)
   11f8e:	010cb603          	ld	a2,16(s9)
   11f92:	6ec70be3          	beq	a4,a2,12e88 <printf_positional+0x1bea>
   11f96:	00170613          	addi	a2,a4,1
   11f9a:	00ccb423          	sd	a2,8(s9)
   11f9e:	01770023          	sb	s7,0(a4)
   11fa2:	d4d050e3          	blez	a3,11ce2 <printf_positional+0xa44>
   11fa6:	b7ad                	j	11f10 <printf_positional+0xc72>
   11fa8:	4715                	li	a4,5
   11faa:	87f2                	mv	a5,t3
   11fac:	00ee5363          	bge	t3,a4,11fb2 <printf_positional+0xd14>
   11fb0:	4795                	li	a5,5
   11fb2:	05300713          	li	a4,83
   11fb6:	00078e1b          	sext.w	t3,a5
   11fba:	00039d97          	auipc	s11,0x39
   11fbe:	b16d8d93          	addi	s11,s11,-1258 # 4aad0 <__PRETTY_FUNCTION__.1+0x18>
   11fc2:	e4eb89e3          	beq	s7,a4,11e14 <printf_positional+0xb76>
   11fc6:	77fd                	lui	a5,0xfffff
   11fc8:	73078793          	addi	a5,a5,1840 # fffffffffffff730 <__BSS_END__+0xfffffffffff8c0b8>
   11fcc:	97a2                	add	a5,a5,s0
   11fce:	85f2                	mv	a1,t3
   11fd0:	856e                	mv	a0,s11
   11fd2:	0067b023          	sd	t1,0(a5)
   11fd6:	56e070ef          	jal	19544 <__strnlen>
   11fda:	77fd                	lui	a5,0xfffff
   11fdc:	73078793          	addi	a5,a5,1840 # fffffffffffff730 <__BSS_END__+0xfffffffffff8c0b8>
   11fe0:	97a2                	add	a5,a5,s0
   11fe2:	0007b303          	ld	t1,0(a5)
   11fe6:	89aa                	mv	s3,a0
   11fe8:	0005049b          	sext.w	s1,a0
   11fec:	409304bb          	subw	s1,t1,s1
   11ff0:	00048a1b          	sext.w	s4,s1
   11ff4:	000a4663          	bltz	s4,12000 <printf_positional+0xd62>
   11ff8:	74091063          	bnez	s2,12738 <printf_positional+0x149a>
   11ffc:	1c0a10e3          	bnez	s4,129bc <printf_positional+0x171e>
   12000:	864e                	mv	a2,s3
   12002:	85ee                	mv	a1,s11
   12004:	8566                	mv	a0,s9
   12006:	386180ef          	jal	2a38c <__printf_buffer_write>
   1200a:	e50ff06f          	j	1165a <printf_positional+0x3bc>
   1200e:	ffe5061b          	addiw	a2,a0,-2
   12012:	b98d                	j	11c84 <printf_positional+0x9e6>
   12014:	00cb5703          	lhu	a4,12(s6)
   12018:	4060033b          	negw	t1,t1
   1201c:	006b2223          	sw	t1,4(s6)
   12020:	02076713          	ori	a4,a4,32
   12024:	00eb1623          	sh	a4,12(s6)
   12028:	4905                	li	s2,1
   1202a:	ee6ff06f          	j	11710 <printf_positional+0x472>
   1202e:	4a81                	li	s5,0
   12030:	777d                	lui	a4,0xfffff
   12032:	6d070713          	addi	a4,a4,1744 # fffffffffffff6d0 <__BSS_END__+0xfffffffffff8c058>
   12036:	02000793          	li	a5,32
   1203a:	9722                	add	a4,a4,s0
   1203c:	e31c                	sd	a5,0(a4)
   1203e:	77fd                	lui	a5,0xfffff
   12040:	6e078793          	addi	a5,a5,1760 # fffffffffffff6e0 <__BSS_END__+0xfffffffffff8c068>
   12044:	97a2                	add	a5,a5,s0
   12046:	01c7b023          	sd	t3,0(a5)
   1204a:	77fd                	lui	a5,0xfffff
   1204c:	6e878793          	addi	a5,a5,1768 # fffffffffffff6e8 <__BSS_END__+0xfffffffffff8c070>
   12050:	97a2                	add	a5,a5,s0
   12052:	0067b023          	sd	t1,0(a5)
   12056:	77fd                	lui	a5,0xfffff
   12058:	71878793          	addi	a5,a5,1816 # fffffffffffff718 <__BSS_END__+0xfffffffffff8c0a0>
   1205c:	97a2                	add	a5,a5,s0
   1205e:	6390                	ld	a2,0(a5)
   12060:	77fd                	lui	a5,0xfffff
   12062:	71078793          	addi	a5,a5,1808 # fffffffffffff710 <__BSS_END__+0xfffffffffff8c098>
   12066:	97a2                	add	a5,a5,s0
   12068:	0007bd83          	ld	s11,0(a5)
   1206c:	77fd                	lui	a5,0xfffff
   1206e:	72878793          	addi	a5,a5,1832 # fffffffffffff728 <__BSS_END__+0xfffffffffff8c0b0>
   12072:	97a2                	add	a5,a5,s0
   12074:	6388                	ld	a0,0(a5)
   12076:	fa8b8693          	addi	a3,s7,-88
   1207a:	0016b693          	seqz	a3,a3
   1207e:	85ee                	mv	a1,s11
   12080:	503170ef          	jal	29d82 <_itoa_word>
   12084:	777d                	lui	a4,0xfffff
   12086:	6e870713          	addi	a4,a4,1768 # fffffffffffff6e8 <__BSS_END__+0xfffffffffff8c070>
   1208a:	9722                	add	a4,a4,s0
   1208c:	00073303          	ld	t1,0(a4)
   12090:	777d                	lui	a4,0xfffff
   12092:	6e070713          	addi	a4,a4,1760 # fffffffffffff6e0 <__BSS_END__+0xfffffffffff8c068>
   12096:	9722                	add	a4,a4,s0
   12098:	00073e03          	ld	t3,0(a4)
   1209c:	777d                	lui	a4,0xfffff
   1209e:	73070713          	addi	a4,a4,1840 # fffffffffffff730 <__BSS_END__+0xfffffffffff8c0b8>
   120a2:	77fd                	lui	a5,0xfffff
   120a4:	9722                	add	a4,a4,s0
   120a6:	70078793          	addi	a5,a5,1792 # fffffffffffff700 <__BSS_END__+0xfffffffffff8c088>
   120aa:	6318                	ld	a4,0(a4)
   120ac:	97a2                	add	a5,a5,s0
   120ae:	e388                	sd	a0,0(a5)
   120b0:	40ad87b3          	sub	a5,s11,a0
   120b4:	b60706e3          	beqz	a4,11c20 <printf_positional+0x982>
   120b8:	777d                	lui	a4,0xfffff
   120ba:	6a070713          	addi	a4,a4,1696 # fffffffffffff6a0 <__BSS_END__+0xfffffffffff8c028>
   120be:	9722                	add	a4,a4,s0
   120c0:	01c73023          	sd	t3,0(a4)
   120c4:	777d                	lui	a4,0xfffff
   120c6:	6a870713          	addi	a4,a4,1704 # fffffffffffff6a8 <__BSS_END__+0xfffffffffff8c030>
   120ca:	9722                	add	a4,a4,s0
   120cc:	00673023          	sd	t1,0(a4)
   120d0:	777d                	lui	a4,0xfffff
   120d2:	69070713          	addi	a4,a4,1680 # fffffffffffff690 <__BSS_END__+0xfffffffffff8c018>
   120d6:	9722                	add	a4,a4,s0
   120d8:	00073d83          	ld	s11,0(a4)
   120dc:	777d                	lui	a4,0xfffff
   120de:	6e070713          	addi	a4,a4,1760 # fffffffffffff6e0 <__BSS_END__+0xfffffffffff8c068>
   120e2:	004d86b3          	add	a3,s11,tp
   120e6:	9722                	add	a4,a4,s0
   120e8:	6290                	ld	a2,0(a3)
   120ea:	e31c                	sd	a5,0(a4)
   120ec:	0007869b          	sext.w	a3,a5
   120f0:	77fd                	lui	a5,0xfffff
   120f2:	6e878793          	addi	a5,a5,1768 # fffffffffffff6e8 <__BSS_END__+0xfffffffffff8c070>
   120f6:	97a2                	add	a5,a5,s0
   120f8:	e394                	sd	a3,0(a5)
   120fa:	77fd                	lui	a5,0xfffff
   120fc:	6f078793          	addi	a5,a5,1776 # fffffffffffff6f0 <__BSS_END__+0xfffffffffff8c078>
   12100:	97a2                	add	a5,a5,s0
   12102:	6388                	ld	a0,0(a5)
   12104:	4585                	li	a1,1
   12106:	62b170ef          	jal	29f30 <__grouping_iterator_init>
   1210a:	77fd                	lui	a5,0xfffff
   1210c:	70878793          	addi	a5,a5,1800 # fffffffffffff708 <__BSS_END__+0xfffffffffff8c090>
   12110:	97a2                	add	a5,a5,s0
   12112:	6398                	ld	a4,0(a5)
   12114:	767d                	lui	a2,0xfffff
   12116:	77fd                	lui	a5,0xfffff
   12118:	6e878793          	addi	a5,a5,1768 # fffffffffffff6e8 <__BSS_END__+0xfffffffffff8c070>
   1211c:	6a860613          	addi	a2,a2,1704 # fffffffffffff6a8 <__BSS_END__+0xfffffffffff8c030>
   12120:	97a2                	add	a5,a5,s0
   12122:	9622                	add	a2,a2,s0
   12124:	6394                	ld	a3,0(a5)
   12126:	00063303          	ld	t1,0(a2)
   1212a:	77fd                	lui	a5,0xfffff
   1212c:	767d                	lui	a2,0xfffff
   1212e:	6e078793          	addi	a5,a5,1760 # fffffffffffff6e0 <__BSS_END__+0xfffffffffff8c068>
   12132:	6a060613          	addi	a2,a2,1696 # fffffffffffff6a0 <__BSS_END__+0xfffffffffff8c028>
   12136:	97a2                	add	a5,a5,s0
   12138:	9622                	add	a2,a2,s0
   1213a:	639c                	ld	a5,0(a5)
   1213c:	00063e03          	ld	t3,0(a2)
   12140:	46070263          	beqz	a4,125a4 <printf_positional+0x1306>
   12144:	777d                	lui	a4,0xfffff
   12146:	71870713          	addi	a4,a4,1816 # fffffffffffff718 <__BSS_END__+0xfffffffffff8c0a0>
   1214a:	9722                	add	a4,a4,s0
   1214c:	6318                	ld	a4,0(a4)
   1214e:	4629                	li	a2,10
   12150:	40fa8ab3          	sub	s5,s5,a5
   12154:	20c70663          	beq	a4,a2,12360 <printf_positional+0x10c2>
   12158:	8dd6                	mv	s11,s5
   1215a:	fffdc613          	not	a2,s11
   1215e:	967d                	srai	a2,a2,0x3f
   12160:	00cdfdb3          	and	s11,s11,a2
   12164:	8f36                	mv	t5,a3
   12166:	000d869b          	sext.w	a3,s11
   1216a:	777d                	lui	a4,0xfffff
   1216c:	69870713          	addi	a4,a4,1688 # fffffffffffff698 <__BSS_END__+0xfffffffffff8c020>
   12170:	9722                	add	a4,a4,s0
   12172:	00073a83          	ld	s5,0(a4)
   12176:	aca5                	j	123ee <printf_positional+0x1150>
   12178:	02091d63          	bnez	s2,121b2 <printf_positional+0xf14>
   1217c:	777d                	lui	a4,0xfffff
   1217e:	72870713          	addi	a4,a4,1832 # fffffffffffff728 <__BSS_END__+0xfffffffffff8c0b0>
   12182:	9722                	add	a4,a4,s0
   12184:	6318                	ld	a4,0(a4)
   12186:	00df0f3b          	addw	t5,t5,a3
   1218a:	41e3063b          	subw	a2,t1,t5
   1218e:	b00705e3          	beqz	a4,11c98 <printf_positional+0x9fa>
   12192:	b00483e3          	beqz	s1,11c98 <printf_positional+0x9fa>
   12196:	777d                	lui	a4,0xfffff
   12198:	71870713          	addi	a4,a4,1816 # fffffffffffff718 <__BSS_END__+0xfffffffffff8c0a0>
   1219c:	9722                	add	a4,a4,s0
   1219e:	6318                	ld	a4,0(a4)
   121a0:	65c1                	lui	a1,0x10
   121a2:	0591                	addi	a1,a1,4 # 10004 <__ehdr_start+0x4>
   121a4:	00e5d5b3          	srl	a1,a1,a4
   121a8:	8985                	andi	a1,a1,1
   121aa:	ae0587e3          	beqz	a1,11c98 <printf_positional+0x9fa>
   121ae:	3679                	addiw	a2,a2,-2
   121b0:	b4e5                	j	11c98 <printf_positional+0x9fa>
   121b2:	4901                	li	s2,0
   121b4:	3a0d1863          	bnez	s10,12564 <printf_positional+0x12c6>
   121b8:	3e099e63          	bnez	s3,125b4 <printf_positional+0x1316>
   121bc:	5a0a1163          	bnez	s4,1275e <printf_positional+0x14c0>
   121c0:	777d                	lui	a4,0xfffff
   121c2:	72870713          	addi	a4,a4,1832 # fffffffffffff728 <__BSS_END__+0xfffffffffff8c0b0>
   121c6:	9722                	add	a4,a4,s0
   121c8:	6318                	ld	a4,0(a4)
   121ca:	cf11                	beqz	a4,121e6 <printf_positional+0xf48>
   121cc:	cc89                	beqz	s1,121e6 <printf_positional+0xf48>
   121ce:	767d                	lui	a2,0xfffff
   121d0:	71860613          	addi	a2,a2,1816 # fffffffffffff718 <__BSS_END__+0xfffffffffff8c0a0>
   121d4:	9622                	add	a2,a2,s0
   121d6:	6210                	ld	a2,0(a2)
   121d8:	6741                	lui	a4,0x10
   121da:	0711                	addi	a4,a4,4 # 10004 <__ehdr_start+0x4>
   121dc:	00c75733          	srl	a4,a4,a2
   121e0:	8b05                	andi	a4,a4,1
   121e2:	5c071e63          	bnez	a4,127be <printf_positional+0x1520>
   121e6:	01b78dbb          	addw	s11,a5,s11
   121ea:	2a090463          	beqz	s2,12492 <printf_positional+0x11f4>
   121ee:	02d05e63          	blez	a3,1222a <printf_positional+0xf8c>
   121f2:	777d                	lui	a4,0xfffff
   121f4:	72870713          	addi	a4,a4,1832 # fffffffffffff728 <__BSS_END__+0xfffffffffff8c0b0>
   121f8:	9722                	add	a4,a4,s0
   121fa:	e31c                	sd	a5,0(a4)
   121fc:	77fd                	lui	a5,0xfffff
   121fe:	73078793          	addi	a5,a5,1840 # fffffffffffff730 <__BSS_END__+0xfffffffffff8c0b8>
   12202:	97a2                	add	a5,a5,s0
   12204:	8636                	mv	a2,a3
   12206:	03000593          	li	a1,48
   1220a:	8566                	mv	a0,s9
   1220c:	0067b023          	sd	t1,0(a5)
   12210:	697170ef          	jal	2a0a6 <__printf_buffer_pad_1>
   12214:	77fd                	lui	a5,0xfffff
   12216:	73078793          	addi	a5,a5,1840 # fffffffffffff730 <__BSS_END__+0xfffffffffff8c0b8>
   1221a:	97a2                	add	a5,a5,s0
   1221c:	0007b303          	ld	t1,0(a5)
   12220:	77fd                	lui	a5,0xfffff
   12222:	72878793          	addi	a5,a5,1832 # fffffffffffff728 <__BSS_END__+0xfffffffffff8c0b0>
   12226:	97a2                	add	a5,a5,s0
   12228:	639c                	ld	a5,0(a5)
   1222a:	008cb703          	ld	a4,8(s9)
   1222e:	010cb683          	ld	a3,16(s9)
   12232:	16d70be3          	beq	a4,a3,12ba8 <printf_positional+0x190a>
   12236:	00170693          	addi	a3,a4,1
   1223a:	00dcb423          	sd	a3,8(s9)
   1223e:	03000693          	li	a3,48
   12242:	00d70023          	sb	a3,0(a4)
   12246:	337d                	addiw	t1,t1,-1
   12248:	a459                	j	124ce <printf_positional+0x1230>
   1224a:	72049163          	bnez	s1,1296c <printf_positional+0x16ce>
   1224e:	77fd                	lui	a5,0xfffff
   12250:	73078793          	addi	a5,a5,1840 # fffffffffffff730 <__BSS_END__+0xfffffffffff8c0b8>
   12254:	97a2                	add	a5,a5,s0
   12256:	639c                	ld	a5,0(a5)
   12258:	2a0796e3          	bnez	a5,12d04 <printf_positional+0x1a66>
   1225c:	77fd                	lui	a5,0xfffff
   1225e:	70878793          	addi	a5,a5,1800 # fffffffffffff708 <__BSS_END__+0xfffffffffff8c090>
   12262:	97a2                	add	a5,a5,s0
   12264:	639c                	ld	a5,0(a5)
   12266:	260797e3          	bnez	a5,12cd4 <printf_positional+0x1a36>
   1226a:	77fd                	lui	a5,0xfffff
   1226c:	71078793          	addi	a5,a5,1808 # fffffffffffff710 <__BSS_END__+0xfffffffffff8c098>
   12270:	97a2                	add	a5,a5,s0
   12272:	639c                	ld	a5,0(a5)
   12274:	777d                	lui	a4,0xfffff
   12276:	70070713          	addi	a4,a4,1792 # fffffffffffff700 <__BSS_END__+0xfffffffffff8c088>
   1227a:	9722                	add	a4,a4,s0
   1227c:	e31c                	sd	a5,0(a4)
   1227e:	4f01                	li	t5,0
   12280:	4781                	li	a5,0
   12282:	4681                	li	a3,0
   12284:	4d81                	li	s11,0
   12286:	767d                	lui	a2,0xfffff
   12288:	6d060613          	addi	a2,a2,1744 # fffffffffffff6d0 <__BSS_END__+0xfffffffffff8c058>
   1228c:	02000713          	li	a4,32
   12290:	9622                	add	a2,a2,s0
   12292:	4a81                	li	s5,0
   12294:	e218                	sd	a4,0(a2)
   12296:	f0091ee3          	bnez	s2,121b2 <printf_positional+0xf14>
   1229a:	01aa65b3          	or	a1,s4,s10
   1229e:	01e6863b          	addw	a2,a3,t5
   122a2:	00b9e5b3          	or	a1,s3,a1
   122a6:	40c3063b          	subw	a2,t1,a2
   122aa:	9e058de3          	beqz	a1,11ca4 <printf_positional+0xa06>
   122ae:	777d                	lui	a4,0xfffff
   122b0:	6d070713          	addi	a4,a4,1744 # fffffffffffff6d0 <__BSS_END__+0xfffffffffff8c058>
   122b4:	9722                	add	a4,a4,s0
   122b6:	6318                	ld	a4,0(a4)
   122b8:	02000513          	li	a0,32
   122bc:	367d                	addiw	a2,a2,-1
   122be:	34a70263          	beq	a4,a0,12602 <printf_positional+0x1364>
   122c2:	9eb1                	addw	a3,a3,a2
   122c4:	2c0d1063          	bnez	s10,12584 <printf_positional+0x12e6>
   122c8:	3c098163          	beqz	s3,1268a <printf_positional+0x13ec>
   122cc:	008cb703          	ld	a4,8(s9)
   122d0:	010cb603          	ld	a2,16(s9)
   122d4:	16c709e3          	beq	a4,a2,12c46 <printf_positional+0x19a8>
   122d8:	00170613          	addi	a2,a4,1
   122dc:	00ccb423          	sd	a2,8(s9)
   122e0:	02b00613          	li	a2,43
   122e4:	00c70023          	sb	a2,0(a4)
   122e8:	bac1                	j	11cb8 <printf_positional+0xa1a>
   122ea:	777d                	lui	a4,0xfffff
   122ec:	71870713          	addi	a4,a4,1816 # fffffffffffff718 <__BSS_END__+0xfffffffffff8c0a0>
   122f0:	9722                	add	a4,a4,s0
   122f2:	6318                	ld	a4,0(a4)
   122f4:	4629                	li	a2,10
   122f6:	00078f1b          	sext.w	t5,a5
   122fa:	00c70463          	beq	a4,a2,12302 <printf_positional+0x1064>
   122fe:	4a81                	li	s5,0
   12300:	b2a1                	j	11c48 <printf_positional+0x9aa>
   12302:	777d                	lui	a4,0xfffff
   12304:	6a870713          	addi	a4,a4,1704 # fffffffffffff6a8 <__BSS_END__+0xfffffffffff8c030>
   12308:	9722                	add	a4,a4,s0
   1230a:	01c73023          	sd	t3,0(a4)
   1230e:	777d                	lui	a4,0xfffff
   12310:	6e070713          	addi	a4,a4,1760 # fffffffffffff6e0 <__BSS_END__+0xfffffffffff8c068>
   12314:	9722                	add	a4,a4,s0
   12316:	00673023          	sd	t1,0(a4)
   1231a:	777d                	lui	a4,0xfffff
   1231c:	6e870713          	addi	a4,a4,1768 # fffffffffffff6e8 <__BSS_END__+0xfffffffffff8c070>
   12320:	9722                	add	a4,a4,s0
   12322:	757d                	lui	a0,0xfffff
   12324:	e31c                	sd	a5,0(a4)
   12326:	0007859b          	sext.w	a1,a5
   1232a:	75850793          	addi	a5,a0,1880 # fffffffffffff758 <__BSS_END__+0xfffffffffff8c0e0>
   1232e:	00878533          	add	a0,a5,s0
   12332:	3d1170ef          	jal	29f02 <__grouping_iterator_init_none>
   12336:	777d                	lui	a4,0xfffff
   12338:	6e070713          	addi	a4,a4,1760 # fffffffffffff6e0 <__BSS_END__+0xfffffffffff8c068>
   1233c:	9722                	add	a4,a4,s0
   1233e:	00073303          	ld	t1,0(a4)
   12342:	77fd                	lui	a5,0xfffff
   12344:	777d                	lui	a4,0xfffff
   12346:	6e878793          	addi	a5,a5,1768 # fffffffffffff6e8 <__BSS_END__+0xfffffffffff8c070>
   1234a:	6a870713          	addi	a4,a4,1704 # fffffffffffff6a8 <__BSS_END__+0xfffffffffff8c030>
   1234e:	97a2                	add	a5,a5,s0
   12350:	9722                	add	a4,a4,s0
   12352:	0005cd97          	auipc	s11,0x5c
   12356:	d86dbd83          	ld	s11,-634(s11) # 6e0d8 <_GLOBAL_OFFSET_TABLE_+0x358>
   1235a:	639c                	ld	a5,0(a5)
   1235c:	00073e03          	ld	t3,0(a4)
   12360:	777d                	lui	a4,0xfffff
   12362:	6a870713          	addi	a4,a4,1704 # fffffffffffff6a8 <__BSS_END__+0xfffffffffff8c030>
   12366:	9722                	add	a4,a4,s0
   12368:	e31c                	sd	a5,0(a4)
   1236a:	77fd                	lui	a5,0xfffff
   1236c:	6e078793          	addi	a5,a5,1760 # fffffffffffff6e0 <__BSS_END__+0xfffffffffff8c068>
   12370:	97a2                	add	a5,a5,s0
   12372:	01c7b023          	sd	t3,0(a5)
   12376:	77fd                	lui	a5,0xfffff
   12378:	6e878793          	addi	a5,a5,1768 # fffffffffffff6e8 <__BSS_END__+0xfffffffffff8c070>
   1237c:	97a2                	add	a5,a5,s0
   1237e:	0067b023          	sd	t1,0(a5)
   12382:	77fd                	lui	a5,0xfffff
   12384:	71078793          	addi	a5,a5,1808 # fffffffffffff710 <__BSS_END__+0xfffffffffff8c098>
   12388:	97a2                	add	a5,a5,s0
   1238a:	6390                	ld	a2,0(a5)
   1238c:	77fd                	lui	a5,0xfffff
   1238e:	70078793          	addi	a5,a5,1792 # fffffffffffff700 <__BSS_END__+0xfffffffffff8c088>
   12392:	9d92                	add	s11,s11,tp
   12394:	97a2                	add	a5,a5,s0
   12396:	000db503          	ld	a0,0(s11)
   1239a:	638c                	ld	a1,0(a5)
   1239c:	fffacd93          	not	s11,s5
   123a0:	43fddd93          	srai	s11,s11,0x3f
   123a4:	1ef1a0ef          	jal	2cd92 <__translated_number_width>
   123a8:	77fd                	lui	a5,0xfffff
   123aa:	69878793          	addi	a5,a5,1688 # fffffffffffff698 <__BSS_END__+0xfffffffffff8c020>
   123ae:	97a2                	add	a5,a5,s0
   123b0:	01bafdb3          	and	s11,s5,s11
   123b4:	0007ba83          	ld	s5,0(a5)
   123b8:	77fd                	lui	a5,0xfffff
   123ba:	6e878793          	addi	a5,a5,1768 # fffffffffffff6e8 <__BSS_END__+0xfffffffffff8c070>
   123be:	97a2                	add	a5,a5,s0
   123c0:	0007b303          	ld	t1,0(a5)
   123c4:	77fd                	lui	a5,0xfffff
   123c6:	6e078793          	addi	a5,a5,1760 # fffffffffffff6e0 <__BSS_END__+0xfffffffffff8c068>
   123ca:	97a2                	add	a5,a5,s0
   123cc:	0007be03          	ld	t3,0(a5)
   123d0:	77fd                	lui	a5,0xfffff
   123d2:	6a878793          	addi	a5,a5,1704 # fffffffffffff6a8 <__BSS_END__+0xfffffffffff8c030>
   123d6:	97a2                	add	a5,a5,s0
   123d8:	639c                	ld	a5,0(a5)
   123da:	8f2a                	mv	t5,a0
   123dc:	000d869b          	sext.w	a3,s11
   123e0:	777d                	lui	a4,0xfffff
   123e2:	73070713          	addi	a4,a4,1840 # fffffffffffff730 <__BSS_END__+0xfffffffffff8c0b8>
   123e6:	9722                	add	a4,a4,s0
   123e8:	6318                	ld	a4,0(a4)
   123ea:	84070fe3          	beqz	a4,11c48 <printf_positional+0x9aa>
   123ee:	777d                	lui	a4,0xfffff
   123f0:	6a070713          	addi	a4,a4,1696 # fffffffffffff6a0 <__BSS_END__+0xfffffffffff8c028>
   123f4:	9722                	add	a4,a4,s0
   123f6:	e31c                	sd	a5,0(a4)
   123f8:	77fd                	lui	a5,0xfffff
   123fa:	6a878793          	addi	a5,a5,1704 # fffffffffffff6a8 <__BSS_END__+0xfffffffffff8c030>
   123fe:	97a2                	add	a5,a5,s0
   12400:	e394                	sd	a3,0(a5)
   12402:	77fd                	lui	a5,0xfffff
   12404:	6e078793          	addi	a5,a5,1760 # fffffffffffff6e0 <__BSS_END__+0xfffffffffff8c068>
   12408:	97a2                	add	a5,a5,s0
   1240a:	01e7b023          	sd	t5,0(a5)
   1240e:	77fd                	lui	a5,0xfffff
   12410:	6e878793          	addi	a5,a5,1768 # fffffffffffff6e8 <__BSS_END__+0xfffffffffff8c070>
   12414:	97a2                	add	a5,a5,s0
   12416:	01c7b023          	sd	t3,0(a5)
   1241a:	6808                	ld	a0,16(s0)
   1241c:	77fd                	lui	a5,0xfffff
   1241e:	73078793          	addi	a5,a5,1840 # fffffffffffff730 <__BSS_END__+0xfffffffffff8c0b8>
   12422:	97a2                	add	a5,a5,s0
   12424:	0067b023          	sd	t1,0(a5)
   12428:	06c070ef          	jal	19494 <strlen>
   1242c:	77fd                	lui	a5,0xfffff
   1242e:	f9078793          	addi	a5,a5,-112 # ffffffffffffef90 <__BSS_END__+0xfffffffffff8b918>
   12432:	00878633          	add	a2,a5,s0
   12436:	7dc62603          	lw	a2,2012(a2)
   1243a:	777d                	lui	a4,0xfffff
   1243c:	6a870713          	addi	a4,a4,1704 # fffffffffffff6a8 <__BSS_END__+0xfffffffffff8c030>
   12440:	02a6063b          	mulw	a2,a2,a0
   12444:	9722                	add	a4,a4,s0
   12446:	6314                	ld	a3,0(a4)
   12448:	77fd                	lui	a5,0xfffff
   1244a:	777d                	lui	a4,0xfffff
   1244c:	6e078793          	addi	a5,a5,1760 # fffffffffffff6e0 <__BSS_END__+0xfffffffffff8c068>
   12450:	6e870713          	addi	a4,a4,1768 # fffffffffffff6e8 <__BSS_END__+0xfffffffffff8c070>
   12454:	97a2                	add	a5,a5,s0
   12456:	9722                	add	a4,a4,s0
   12458:	0007bf03          	ld	t5,0(a5)
   1245c:	00073e03          	ld	t3,0(a4)
   12460:	77fd                	lui	a5,0xfffff
   12462:	777d                	lui	a4,0xfffff
   12464:	6a078793          	addi	a5,a5,1696 # fffffffffffff6a0 <__BSS_END__+0xfffffffffff8c028>
   12468:	73070713          	addi	a4,a4,1840 # fffffffffffff730 <__BSS_END__+0xfffffffffff8c0b8>
   1246c:	97a2                	add	a5,a5,s0
   1246e:	9722                	add	a4,a4,s0
   12470:	639c                	ld	a5,0(a5)
   12472:	00073303          	ld	t1,0(a4)
   12476:	01e60f3b          	addw	t5,a2,t5
   1247a:	fceff06f          	j	11c48 <printf_positional+0x9aa>
   1247e:	777d                	lui	a4,0xfffff
   12480:	6d070713          	addi	a4,a4,1744 # fffffffffffff6d0 <__BSS_END__+0xfffffffffff8c058>
   12484:	0fff7793          	zext.b	a5,t5
   12488:	9722                	add	a4,a4,s0
   1248a:	e31c                	sd	a5,0(a4)
   1248c:	4a85                	li	s5,1
   1248e:	4e05                	li	t3,1
   12490:	b67d                	j	1203e <printf_positional+0xda0>
   12492:	02d05e63          	blez	a3,124ce <printf_positional+0x1230>
   12496:	777d                	lui	a4,0xfffff
   12498:	72870713          	addi	a4,a4,1832 # fffffffffffff728 <__BSS_END__+0xfffffffffff8c0b0>
   1249c:	9722                	add	a4,a4,s0
   1249e:	e31c                	sd	a5,0(a4)
   124a0:	77fd                	lui	a5,0xfffff
   124a2:	73078793          	addi	a5,a5,1840 # fffffffffffff730 <__BSS_END__+0xfffffffffff8c0b8>
   124a6:	97a2                	add	a5,a5,s0
   124a8:	8636                	mv	a2,a3
   124aa:	03000593          	li	a1,48
   124ae:	8566                	mv	a0,s9
   124b0:	0067b023          	sd	t1,0(a5)
   124b4:	3f3170ef          	jal	2a0a6 <__printf_buffer_pad_1>
   124b8:	77fd                	lui	a5,0xfffff
   124ba:	777d                	lui	a4,0xfffff
   124bc:	72878793          	addi	a5,a5,1832 # fffffffffffff728 <__BSS_END__+0xfffffffffff8c0b0>
   124c0:	73070713          	addi	a4,a4,1840 # fffffffffffff730 <__BSS_END__+0xfffffffffff8c0b8>
   124c4:	97a2                	add	a5,a5,s0
   124c6:	9722                	add	a4,a4,s0
   124c8:	639c                	ld	a5,0(a5)
   124ca:	00073303          	ld	t1,0(a4)
   124ce:	41b30dbb          	subw	s11,t1,s11
   124d2:	060a8f63          	beqz	s5,12550 <printf_positional+0x12b2>
   124d6:	777d                	lui	a4,0xfffff
   124d8:	70870713          	addi	a4,a4,1800 # fffffffffffff708 <__BSS_END__+0xfffffffffff8c090>
   124dc:	9722                	add	a4,a4,s0
   124de:	6318                	ld	a4,0(a4)
   124e0:	4781                	li	a5,0
   124e2:	cb09                	beqz	a4,124f4 <printf_positional+0x1256>
   124e4:	77fd                	lui	a5,0xfffff
   124e6:	71878793          	addi	a5,a5,1816 # fffffffffffff718 <__BSS_END__+0xfffffffffff8c0a0>
   124ea:	97a2                	add	a5,a5,s0
   124ec:	639c                	ld	a5,0(a5)
   124ee:	17d9                	addi	a5,a5,-10
   124f0:	0017b793          	seqz	a5,a5
   124f4:	76fd                	lui	a3,0xfffff
   124f6:	767d                	lui	a2,0xfffff
   124f8:	75fd                	lui	a1,0xfffff
   124fa:	71068693          	addi	a3,a3,1808 # fffffffffffff710 <__BSS_END__+0xfffffffffff8c098>
   124fe:	70060613          	addi	a2,a2,1792 # fffffffffffff700 <__BSS_END__+0xfffffffffff8c088>
   12502:	6f058593          	addi	a1,a1,1776 # fffffffffffff6f0 <__BSS_END__+0xfffffffffff8c078>
   12506:	96a2                	add	a3,a3,s0
   12508:	9622                	add	a2,a2,s0
   1250a:	95a2                	add	a1,a1,s0
   1250c:	6818                	ld	a4,16(s0)
   1250e:	6294                	ld	a3,0(a3)
   12510:	6210                	ld	a2,0(a2)
   12512:	618c                	ld	a1,0(a1)
   12514:	8566                	mv	a0,s9
   12516:	cbdfe0ef          	jal	111d2 <group_number>
   1251a:	95b05063          	blez	s11,1165a <printf_positional+0x3bc>
   1251e:	866e                	mv	a2,s11
   12520:	02000593          	li	a1,32
   12524:	8566                	mv	a0,s9
   12526:	381170ef          	jal	2a0a6 <__printf_buffer_pad_1>
   1252a:	930ff06f          	j	1165a <printf_positional+0x3bc>
   1252e:	77fd                	lui	a5,0xfffff
   12530:	6f078793          	addi	a5,a5,1776 # fffffffffffff6f0 <__BSS_END__+0xfffffffffff8c078>
   12534:	97a2                	add	a5,a5,s0
   12536:	6394                	ld	a3,0(a5)
   12538:	865a                	mv	a2,s6
   1253a:	8566                	mv	a0,s9
   1253c:	2de1a0ef          	jal	2c81a <__printf_fphex_l_buffer>
   12540:	91aff06f          	j	1165a <printf_positional+0x3bc>
   12544:	1c0d9e63          	bnez	s11,12720 <printf_positional+0x1482>
   12548:	02069793          	slli	a5,a3,0x20
   1254c:	9381                	srli	a5,a5,0x20
   1254e:	b861                	j	11de6 <printf_positional+0xb48>
   12550:	863e                	mv	a2,a5
   12552:	77fd                	lui	a5,0xfffff
   12554:	70078793          	addi	a5,a5,1792 # fffffffffffff700 <__BSS_END__+0xfffffffffff8c088>
   12558:	97a2                	add	a5,a5,s0
   1255a:	638c                	ld	a1,0(a5)
   1255c:	8566                	mv	a0,s9
   1255e:	62f170ef          	jal	2a38c <__printf_buffer_write>
   12562:	bf65                	j	1251a <printf_positional+0x127c>
   12564:	008cb703          	ld	a4,8(s9)
   12568:	010cb603          	ld	a2,16(s9)
   1256c:	5ec70663          	beq	a4,a2,12b58 <printf_positional+0x18ba>
   12570:	00170613          	addi	a2,a4,1
   12574:	00ccb423          	sd	a2,8(s9)
   12578:	02d00613          	li	a2,45
   1257c:	00c70023          	sb	a2,0(a4)
   12580:	337d                	addiw	t1,t1,-1
   12582:	b93d                	j	121c0 <printf_positional+0xf22>
   12584:	008cb703          	ld	a4,8(s9)
   12588:	010cb603          	ld	a2,16(s9)
   1258c:	58c70b63          	beq	a4,a2,12b22 <printf_positional+0x1884>
   12590:	00170613          	addi	a2,a4,1
   12594:	00ccb423          	sd	a2,8(s9)
   12598:	02d00613          	li	a2,45
   1259c:	00c70023          	sb	a2,0(a4)
   125a0:	f18ff06f          	j	11cb8 <printf_positional+0xa1a>
   125a4:	40fa8db3          	sub	s11,s5,a5
   125a8:	be4d                	j	1215a <printf_positional+0xebc>
   125aa:	8566                	mv	a0,s9
   125ac:	381170ef          	jal	2a12c <__printf_buffer_putc_1>
   125b0:	a98ff06f          	j	11848 <printf_positional+0x5aa>
   125b4:	008cb703          	ld	a4,8(s9)
   125b8:	010cb603          	ld	a2,16(s9)
   125bc:	66c70263          	beq	a4,a2,12c20 <printf_positional+0x1982>
   125c0:	00170613          	addi	a2,a4,1
   125c4:	00ccb423          	sd	a2,8(s9)
   125c8:	02b00613          	li	a2,43
   125cc:	00c70023          	sb	a2,0(a4)
   125d0:	337d                	addiw	t1,t1,-1
   125d2:	b6fd                	j	121c0 <printf_positional+0xf22>
   125d4:	77fd                	lui	a5,0xfffff
   125d6:	6f078793          	addi	a5,a5,1776 # fffffffffffff6f0 <__BSS_END__+0xfffffffffff8c078>
   125da:	97a2                	add	a5,a5,s0
   125dc:	638c                	ld	a1,0(a5)
   125de:	862a                	mv	a2,a0
   125e0:	8566                	mv	a0,s9
   125e2:	5ab170ef          	jal	2a38c <__printf_buffer_write>
   125e6:	01404463          	bgtz	s4,125ee <printf_positional+0x1350>
   125ea:	870ff06f          	j	1165a <printf_positional+0x3bc>
   125ee:	02099613          	slli	a2,s3,0x20
   125f2:	9201                	srli	a2,a2,0x20
   125f4:	02000593          	li	a1,32
   125f8:	8566                	mv	a0,s9
   125fa:	2ad170ef          	jal	2a0a6 <__printf_buffer_pad_1>
   125fe:	85cff06f          	j	1165a <printf_positional+0x3bc>
   12602:	ccc051e3          	blez	a2,122c4 <printf_positional+0x1026>
   12606:	777d                	lui	a4,0xfffff
   12608:	6e870713          	addi	a4,a4,1768 # fffffffffffff6e8 <__BSS_END__+0xfffffffffff8c070>
   1260c:	9722                	add	a4,a4,s0
   1260e:	e31c                	sd	a5,0(a4)
   12610:	77fd                	lui	a5,0xfffff
   12612:	73078793          	addi	a5,a5,1840 # fffffffffffff730 <__BSS_END__+0xfffffffffff8c0b8>
   12616:	97a2                	add	a5,a5,s0
   12618:	02000593          	li	a1,32
   1261c:	8566                	mv	a0,s9
   1261e:	e394                	sd	a3,0(a5)
   12620:	287170ef          	jal	2a0a6 <__printf_buffer_pad_1>
   12624:	77fd                	lui	a5,0xfffff
   12626:	777d                	lui	a4,0xfffff
   12628:	6e878793          	addi	a5,a5,1768 # fffffffffffff6e8 <__BSS_END__+0xfffffffffff8c070>
   1262c:	73070713          	addi	a4,a4,1840 # fffffffffffff730 <__BSS_END__+0xfffffffffff8c0b8>
   12630:	97a2                	add	a5,a5,s0
   12632:	9722                	add	a4,a4,s0
   12634:	639c                	ld	a5,0(a5)
   12636:	6314                	ld	a3,0(a4)
   12638:	b171                	j	122c4 <printf_positional+0x1026>
   1263a:	57fd                	li	a5,-1
   1263c:	00fe0563          	beq	t3,a5,12646 <printf_positional+0x13a8>
   12640:	4795                	li	a5,5
   12642:	31c7dd63          	bge	a5,t3,1295c <printf_positional+0x16be>
   12646:	4499                	li	s1,6
   12648:	4999                	li	s3,6
   1264a:	00038d97          	auipc	s11,0x38
   1264e:	53ed8d93          	addi	s11,s11,1342 # 4ab88 <null>
   12652:	ba69                	j	11fec <printf_positional+0xd4e>
   12654:	e6c05263          	blez	a2,11cb8 <printf_positional+0xa1a>
   12658:	777d                	lui	a4,0xfffff
   1265a:	6e870713          	addi	a4,a4,1768 # fffffffffffff6e8 <__BSS_END__+0xfffffffffff8c070>
   1265e:	9722                	add	a4,a4,s0
   12660:	e31c                	sd	a5,0(a4)
   12662:	77fd                	lui	a5,0xfffff
   12664:	73078793          	addi	a5,a5,1840 # fffffffffffff730 <__BSS_END__+0xfffffffffff8c0b8>
   12668:	97a2                	add	a5,a5,s0
   1266a:	02000593          	li	a1,32
   1266e:	8566                	mv	a0,s9
   12670:	e394                	sd	a3,0(a5)
   12672:	235170ef          	jal	2a0a6 <__printf_buffer_pad_1>
   12676:	77fd                	lui	a5,0xfffff
   12678:	73078793          	addi	a5,a5,1840 # fffffffffffff730 <__BSS_END__+0xfffffffffff8c0b8>
   1267c:	97a2                	add	a5,a5,s0
   1267e:	6394                	ld	a3,0(a5)
   12680:	77fd                	lui	a5,0xfffff
   12682:	6e878793          	addi	a5,a5,1768 # fffffffffffff6e8 <__BSS_END__+0xfffffffffff8c070>
   12686:	97a2                	add	a5,a5,s0
   12688:	639c                	ld	a5,0(a5)
   1268a:	e20a0763          	beqz	s4,11cb8 <printf_positional+0xa1a>
   1268e:	008cb703          	ld	a4,8(s9)
   12692:	010cb603          	ld	a2,16(s9)
   12696:	60c70463          	beq	a4,a2,12c9e <printf_positional+0x1a00>
   1269a:	00170613          	addi	a2,a4,1
   1269e:	00ccb423          	sd	a2,8(s9)
   126a2:	02000613          	li	a2,32
   126a6:	00c70023          	sb	a2,0(a4)
   126aa:	e0eff06f          	j	11cb8 <printf_positional+0xa1a>
   126ae:	77fd                	lui	a5,0xfffff
   126b0:	6f878793          	addi	a5,a5,1784 # fffffffffffff6f8 <__BSS_END__+0xfffffffffff8c080>
   126b4:	97a2                	add	a5,a5,s0
   126b6:	638c                	ld	a1,0(a5)
   126b8:	77fd                	lui	a5,0xfffff
   126ba:	6c078793          	addi	a5,a5,1728 # fffffffffffff6c0 <__BSS_END__+0xfffffffffff8c048>
   126be:	97a2                	add	a5,a5,s0
   126c0:	6388                	ld	a0,0(a5)
   126c2:	3e800613          	li	a2,1000
   126c6:	36d060ef          	jal	19232 <__strerror_r>
   126ca:	77fd                	lui	a5,0xfffff
   126cc:	71078793          	addi	a5,a5,1808 # fffffffffffff710 <__BSS_END__+0xfffffffffff8c098>
   126d0:	97a2                	add	a5,a5,s0
   126d2:	0007be03          	ld	t3,0(a5)
   126d6:	77fd                	lui	a5,0xfffff
   126d8:	71878793          	addi	a5,a5,1816 # fffffffffffff718 <__BSS_END__+0xfffffffffff8c0a0>
   126dc:	97a2                	add	a5,a5,s0
   126de:	0007b303          	ld	t1,0(a5)
   126e2:	77fd                	lui	a5,0xfffff
   126e4:	72878793          	addi	a5,a5,1832 # fffffffffffff728 <__BSS_END__+0xfffffffffff8c0b0>
   126e8:	97a2                	add	a5,a5,s0
   126ea:	0007bf03          	ld	t5,0(a5)
   126ee:	8daa                	mv	s11,a0
   126f0:	f94ff06f          	j	11e84 <printf_positional+0xbe6>
   126f4:	76fd                	lui	a3,0xfffff
   126f6:	73868693          	addi	a3,a3,1848 # fffffffffffff738 <__BSS_END__+0xfffffffffff8c0c0>
   126fa:	030b2703          	lw	a4,48(s6)
   126fe:	96a2                	add	a3,a3,s0
   12700:	6294                	ld	a3,0(a3)
   12702:	0712                	slli	a4,a4,0x4
   12704:	9736                	add	a4,a4,a3
   12706:	4318                	lw	a4,0(a4)
   12708:	24079463          	bnez	a5,12950 <printf_positional+0x16b2>
   1270c:	0007079b          	sext.w	a5,a4
   12710:	fa0d8963          	beqz	s11,11ec2 <printf_positional+0xc24>
   12714:	0107179b          	slliw	a5,a4,0x10
   12718:	4107d79b          	sraiw	a5,a5,0x10
   1271c:	fa6ff06f          	j	11ec2 <printf_positional+0xc24>
   12720:	03069793          	slli	a5,a3,0x30
   12724:	93c1                	srli	a5,a5,0x30
   12726:	ec0ff06f          	j	11de6 <printf_positional+0xb48>
   1272a:	20079f63          	bnez	a5,12948 <printf_positional+0x16aa>
   1272e:	4a0d9a63          	bnez	s11,12be2 <printf_positional+0x1944>
   12732:	c088                	sw	a0,0(s1)
   12734:	f27fe06f          	j	1165a <printf_positional+0x3bc>
   12738:	864e                	mv	a2,s3
   1273a:	85ee                	mv	a1,s11
   1273c:	8566                	mv	a0,s9
   1273e:	44f170ef          	jal	2a38c <__printf_buffer_write>
   12742:	000a1463          	bnez	s4,1274a <printf_positional+0x14ac>
   12746:	f15fe06f          	j	1165a <printf_positional+0x3bc>
   1274a:	02049613          	slli	a2,s1,0x20
   1274e:	9201                	srli	a2,a2,0x20
   12750:	02000593          	li	a1,32
   12754:	8566                	mv	a0,s9
   12756:	151170ef          	jal	2a0a6 <__printf_buffer_pad_1>
   1275a:	f01fe06f          	j	1165a <printf_positional+0x3bc>
   1275e:	008cb703          	ld	a4,8(s9)
   12762:	010cb603          	ld	a2,16(s9)
   12766:	50c70963          	beq	a4,a2,12c78 <printf_positional+0x19da>
   1276a:	00170613          	addi	a2,a4,1
   1276e:	00ccb423          	sd	a2,8(s9)
   12772:	02000613          	li	a2,32
   12776:	00c70023          	sb	a2,0(a4)
   1277a:	337d                	addiw	t1,t1,-1
   1277c:	b491                	j	121c0 <printf_positional+0xf22>
   1277e:	777d                	lui	a4,0xfffff
   12780:	72870713          	addi	a4,a4,1832 # fffffffffffff728 <__BSS_END__+0xfffffffffff8c0b0>
   12784:	40f007b3          	neg	a5,a5
   12788:	9722                	add	a4,a4,s0
   1278a:	e31c                	sd	a5,0(a4)
   1278c:	777d                	lui	a4,0xfffff
   1278e:	71870713          	addi	a4,a4,1816 # fffffffffffff718 <__BSS_END__+0xfffffffffff8c0a0>
   12792:	47a9                	li	a5,10
   12794:	9722                	add	a4,a4,s0
   12796:	e31c                	sd	a5,0(a4)
   12798:	4d05                	li	s10,1
   1279a:	c04ff06f          	j	11b9e <printf_positional+0x900>
   1279e:	777d                	lui	a4,0xfffff
   127a0:	71870713          	addi	a4,a4,1816 # fffffffffffff718 <__BSS_END__+0xfffffffffff8c0a0>
   127a4:	9722                	add	a4,a4,s0
   127a6:	6318                	ld	a4,0(a4)
   127a8:	ff870913          	addi	s2,a4,-8
   127ac:	00193913          	seqz	s2,s2
   127b0:	b411                	j	121b4 <printf_positional+0xf16>
   127b2:	000d0463          	beqz	s10,127ba <printf_positional+0x151c>
   127b6:	d25fe06f          	j	114da <printf_positional+0x23c>
   127ba:	8f6ff06f          	j	118b0 <printf_positional+0x612>
   127be:	008cb703          	ld	a4,8(s9)
   127c2:	010cb603          	ld	a2,16(s9)
   127c6:	66c70b63          	beq	a4,a2,12e3c <printf_positional+0x1b9e>
   127ca:	00170613          	addi	a2,a4,1
   127ce:	00ccb423          	sd	a2,8(s9)
   127d2:	03000613          	li	a2,48
   127d6:	00c70023          	sb	a2,0(a4)
   127da:	008cb703          	ld	a4,8(s9)
   127de:	010cb603          	ld	a2,16(s9)
   127e2:	60c70663          	beq	a4,a2,12dee <printf_positional+0x1b50>
   127e6:	00170613          	addi	a2,a4,1
   127ea:	00ccb423          	sd	a2,8(s9)
   127ee:	01770023          	sb	s7,0(a4)
   127f2:	3379                	addiw	t1,t1,-2
   127f4:	bacd                	j	121e6 <printf_positional+0xf48>
   127f6:	008cb783          	ld	a5,8(s9)
   127fa:	010cb703          	ld	a4,16(s9)
   127fe:	1ee78a63          	beq	a5,a4,129f2 <printf_positional+0x1754>
   12802:	00178713          	addi	a4,a5,1
   12806:	00ecb423          	sd	a4,8(s9)
   1280a:	02700713          	li	a4,39
   1280e:	00e78023          	sb	a4,0(a5)
   12812:	00cb5783          	lhu	a5,12(s6)
   12816:	f83fe06f          	j	11798 <printf_positional+0x4fa>
   1281a:	008cb783          	ld	a5,8(s9)
   1281e:	010cb703          	ld	a4,16(s9)
   12822:	1ae78f63          	beq	a5,a4,129e0 <printf_positional+0x1742>
   12826:	00178713          	addi	a4,a5,1
   1282a:	00ecb423          	sd	a4,8(s9)
   1282e:	02300713          	li	a4,35
   12832:	00e78023          	sb	a4,0(a5)
   12836:	00cb5783          	lhu	a5,12(s6)
   1283a:	f55fe06f          	j	1178e <printf_positional+0x4f0>
   1283e:	797d                	lui	s2,0xfffff
   12840:	f9090793          	addi	a5,s2,-112 # ffffffffffffef90 <__BSS_END__+0xfffffffffff8b918>
   12844:	00878933          	add	s2,a5,s0
   12848:	7d490913          	addi	s2,s2,2004
   1284c:	4681                	li	a3,0
   1284e:	4629                	li	a2,10
   12850:	85ca                	mv	a1,s2
   12852:	530170ef          	jal	29d82 <_itoa_word>
   12856:	84aa                	mv	s1,a0
   12858:	01256463          	bltu	a0,s2,12860 <printf_positional+0x15c2>
   1285c:	f83fe06f          	j	117de <printf_positional+0x540>
   12860:	008cb783          	ld	a5,8(s9)
   12864:	010cb703          	ld	a4,16(s9)
   12868:	0485                	addi	s1,s1,1
   1286a:	fff4c583          	lbu	a1,-1(s1)
   1286e:	00e78c63          	beq	a5,a4,12886 <printf_positional+0x15e8>
   12872:	00178713          	addi	a4,a5,1
   12876:	00ecb423          	sd	a4,8(s9)
   1287a:	00b78023          	sb	a1,0(a5)
   1287e:	ff2491e3          	bne	s1,s2,12860 <printf_positional+0x15c2>
   12882:	f5dfe06f          	j	117de <printf_positional+0x540>
   12886:	8566                	mv	a0,s9
   12888:	0a5170ef          	jal	2a12c <__printf_buffer_putc_1>
   1288c:	fd249ae3          	bne	s1,s2,12860 <printf_positional+0x15c2>
   12890:	f4ffe06f          	j	117de <printf_positional+0x540>
   12894:	008cb783          	ld	a5,8(s9)
   12898:	010cb703          	ld	a4,16(s9)
   1289c:	18e78963          	beq	a5,a4,12a2e <printf_positional+0x1790>
   128a0:	00178713          	addi	a4,a5,1
   128a4:	00ecb423          	sd	a4,8(s9)
   128a8:	04900713          	li	a4,73
   128ac:	00e78023          	sb	a4,0(a5)
   128b0:	f25fe06f          	j	117d4 <printf_positional+0x536>
   128b4:	008cb783          	ld	a5,8(s9)
   128b8:	010cb703          	ld	a4,16(s9)
   128bc:	16e78263          	beq	a5,a4,12a20 <printf_positional+0x1782>
   128c0:	00178713          	addi	a4,a5,1
   128c4:	00ecb423          	sd	a4,8(s9)
   128c8:	02d00713          	li	a4,45
   128cc:	00e78023          	sb	a4,0(a5)
   128d0:	ee7fe06f          	j	117b6 <printf_positional+0x518>
   128d4:	008cb783          	ld	a5,8(s9)
   128d8:	010cb703          	ld	a4,16(s9)
   128dc:	12e78963          	beq	a5,a4,12a0e <printf_positional+0x1770>
   128e0:	00178713          	addi	a4,a5,1
   128e4:	00ecb423          	sd	a4,8(s9)
   128e8:	02b00713          	li	a4,43
   128ec:	00e78023          	sb	a4,0(a5)
   128f0:	00cb5783          	lhu	a5,12(s6)
   128f4:	eb9fe06f          	j	117ac <printf_positional+0x50e>
   128f8:	797d                	lui	s2,0xfffff
   128fa:	f9090793          	addi	a5,s2,-112 # ffffffffffffef90 <__BSS_END__+0xfffffffffff8b918>
   128fe:	00878933          	add	s2,a5,s0
   12902:	4d01                	li	s10,0
   12904:	7f090913          	addi	s2,s2,2032
   12908:	4b01                	li	s6,0
   1290a:	adbfe06f          	j	113e4 <printf_positional+0x146>
   1290e:	77fd                	lui	a5,0xfffff
   12910:	6c078793          	addi	a5,a5,1728 # fffffffffffff6c0 <__BSS_END__+0xfffffffffff8c048>
   12914:	97a2                	add	a5,a5,s0
   12916:	639c                	ld	a5,0(a5)
   12918:	777d                	lui	a4,0xfffff
   1291a:	72870713          	addi	a4,a4,1832 # fffffffffffff728 <__BSS_END__+0xfffffffffff8c0b0>
   1291e:	76fd                	lui	a3,0xfffff
   12920:	9722                	add	a4,a4,s0
   12922:	71868693          	addi	a3,a3,1816 # fffffffffffff718 <__BSS_END__+0xfffffffffff8c0a0>
   12926:	e31c                	sd	a5,0(a4)
   12928:	96a2                	add	a3,a3,s0
   1292a:	4729                	li	a4,10
   1292c:	e298                	sd	a4,0(a3)
   1292e:	4d01                	li	s10,0
   12930:	a607d763          	bgez	a5,11b9e <printf_positional+0x900>
   12934:	777d                	lui	a4,0xfffff
   12936:	72870713          	addi	a4,a4,1832 # fffffffffffff728 <__BSS_END__+0xfffffffffff8c0b0>
   1293a:	40f007b3          	neg	a5,a5
   1293e:	9722                	add	a4,a4,s0
   12940:	e31c                	sd	a5,0(a4)
   12942:	4d05                	li	s10,1
   12944:	a5aff06f          	j	11b9e <printf_positional+0x900>
   12948:	00a48023          	sb	a0,0(s1)
   1294c:	d0ffe06f          	j	1165a <printf_positional+0x3bc>
   12950:	0187179b          	slliw	a5,a4,0x18
   12954:	4187d79b          	sraiw	a5,a5,0x18
   12958:	d6aff06f          	j	11ec2 <printf_positional+0xc24>
   1295c:	4481                	li	s1,0
   1295e:	4981                	li	s3,0
   12960:	0004ed97          	auipc	s11,0x4e
   12964:	fb8d8d93          	addi	s11,s11,-72 # 60918 <conversion_rate+0x588>
   12968:	e84ff06f          	j	11fec <printf_positional+0xd4e>
   1296c:	777d                	lui	a4,0xfffff
   1296e:	6f870713          	addi	a4,a4,1784 # fffffffffffff6f8 <__BSS_END__+0xfffffffffff8c080>
   12972:	9722                	add	a4,a4,s0
   12974:	6318                	ld	a4,0(a4)
   12976:	03000793          	li	a5,48
   1297a:	3ef703a3          	sb	a5,999(a4)
   1297e:	3e770793          	addi	a5,a4,999
   12982:	777d                	lui	a4,0xfffff
   12984:	70070713          	addi	a4,a4,1792 # fffffffffffff700 <__BSS_END__+0xfffffffffff8c088>
   12988:	9722                	add	a4,a4,s0
   1298a:	e31c                	sd	a5,0(a4)
   1298c:	77fd                	lui	a5,0xfffff
   1298e:	73078793          	addi	a5,a5,1840 # fffffffffffff730 <__BSS_END__+0xfffffffffff8c0b8>
   12992:	97a2                	add	a5,a5,s0
   12994:	639c                	ld	a5,0(a5)
   12996:	42079363          	bnez	a5,12dbc <printf_positional+0x1b1e>
   1299a:	77fd                	lui	a5,0xfffff
   1299c:	70878793          	addi	a5,a5,1800 # fffffffffffff708 <__BSS_END__+0xfffffffffff8c090>
   129a0:	97a2                	add	a5,a5,s0
   129a2:	639c                	ld	a5,0(a5)
   129a4:	56078b63          	beqz	a5,12f1a <printf_positional+0x1c7c>
   129a8:	77fd                	lui	a5,0xfffff
   129aa:	70878793          	addi	a5,a5,1800 # fffffffffffff708 <__BSS_END__+0xfffffffffff8c090>
   129ae:	97a2                	add	a5,a5,s0
   129b0:	0007bf03          	ld	t5,0(a5)
   129b4:	4681                	li	a3,0
   129b6:	4d81                	li	s11,0
   129b8:	4785                	li	a5,1
   129ba:	b0f1                	j	12286 <printf_positional+0xfe8>
   129bc:	02049613          	slli	a2,s1,0x20
   129c0:	9201                	srli	a2,a2,0x20
   129c2:	8566                	mv	a0,s9
   129c4:	02000593          	li	a1,32
   129c8:	6de170ef          	jal	2a0a6 <__printf_buffer_pad_1>
   129cc:	e34ff06f          	j	12000 <printf_positional+0xd62>
   129d0:	8626                	mv	a2,s1
   129d2:	02000593          	li	a1,32
   129d6:	8566                	mv	a0,s9
   129d8:	6ce170ef          	jal	2a0a6 <__printf_buffer_pad_1>
   129dc:	b64ff06f          	j	11d40 <printf_positional+0xaa2>
   129e0:	02300593          	li	a1,35
   129e4:	8566                	mv	a0,s9
   129e6:	746170ef          	jal	2a12c <__printf_buffer_putc_1>
   129ea:	00cb5783          	lhu	a5,12(s6)
   129ee:	da1fe06f          	j	1178e <printf_positional+0x4f0>
   129f2:	02700593          	li	a1,39
   129f6:	8566                	mv	a0,s9
   129f8:	734170ef          	jal	2a12c <__printf_buffer_putc_1>
   129fc:	00cb5783          	lhu	a5,12(s6)
   12a00:	d99fe06f          	j	11798 <printf_positional+0x4fa>
   12a04:	8566                	mv	a0,s9
   12a06:	726170ef          	jal	2a12c <__printf_buffer_putc_1>
   12a0a:	c51fe06f          	j	1165a <printf_positional+0x3bc>
   12a0e:	02b00593          	li	a1,43
   12a12:	8566                	mv	a0,s9
   12a14:	718170ef          	jal	2a12c <__printf_buffer_putc_1>
   12a18:	00cb5783          	lhu	a5,12(s6)
   12a1c:	d91fe06f          	j	117ac <printf_positional+0x50e>
   12a20:	02d00593          	li	a1,45
   12a24:	8566                	mv	a0,s9
   12a26:	706170ef          	jal	2a12c <__printf_buffer_putc_1>
   12a2a:	d8dfe06f          	j	117b6 <printf_positional+0x518>
   12a2e:	04900593          	li	a1,73
   12a32:	8566                	mv	a0,s9
   12a34:	6f8170ef          	jal	2a12c <__printf_buffer_putc_1>
   12a38:	d9dfe06f          	j	117d4 <printf_positional+0x536>
   12a3c:	231c                	fld	fa5,0(a4)
   12a3e:	0721                	addi	a4,a4,8
   12a40:	00e9b023          	sd	a4,0(s3)
   12a44:	00fab027          	fsd	fa5,0(s5)
   12a48:	4098                	lw	a4,0(s1)
   12a4a:	eff77713          	andi	a4,a4,-257
   12a4e:	c098                	sw	a4,0(s1)
   12a50:	ae9fe06f          	j	11538 <printf_positional+0x29a>
   12a54:	777d                	lui	a4,0xfffff
   12a56:	73070713          	addi	a4,a4,1840 # fffffffffffff730 <__BSS_END__+0xfffffffffff8c0b8>
   12a5a:	9722                	add	a4,a4,s0
   12a5c:	e31c                	sd	a5,0(a4)
   12a5e:	77fd                	lui	a5,0xfffff
   12a60:	6b078793          	addi	a5,a5,1712 # fffffffffffff6b0 <__BSS_END__+0xfffffffffff8c038>
   12a64:	97a2                	add	a5,a5,s0
   12a66:	6384                	ld	s1,0(a5)
   12a68:	8526                	mv	a0,s1
   12a6a:	22b060ef          	jal	19494 <strlen>
   12a6e:	00150593          	addi	a1,a0,1
   12a72:	8526                	mv	a0,s1
   12a74:	1e0080ef          	jal	1ac54 <__readonly_area>
   12a78:	77fd                	lui	a5,0xfffff
   12a7a:	6c878793          	addi	a5,a5,1736 # fffffffffffff6c8 <__BSS_END__+0xfffffffffff8c050>
   12a7e:	97a2                	add	a5,a5,s0
   12a80:	e388                	sd	a0,0(a5)
   12a82:	77fd                	lui	a5,0xfffff
   12a84:	73078793          	addi	a5,a5,1840 # fffffffffffff730 <__BSS_END__+0xfffffffffff8c0b8>
   12a88:	97a2                	add	a5,a5,s0
   12a8a:	639c                	ld	a5,0(a5)
   12a8c:	884ff06f          	j	11b10 <printf_positional+0x872>
   12a90:	008cb783          	ld	a5,8(s9)
   12a94:	010cb703          	ld	a4,16(s9)
   12a98:	46e78163          	beq	a5,a4,12efa <printf_positional+0x1c5c>
   12a9c:	00178713          	addi	a4,a5,1
   12aa0:	00ecb423          	sd	a4,8(s9)
   12aa4:	02000713          	li	a4,32
   12aa8:	00e78023          	sb	a4,0(a5)
   12aac:	00cb5783          	lhu	a5,12(s6)
   12ab0:	cfdfe06f          	j	117ac <printf_positional+0x50e>
   12ab4:	00cb5783          	lhu	a5,12(s6)
   12ab8:	471d                	li	a4,7
   12aba:	02eb2a23          	sw	a4,52(s6)
   12abe:	9bf9                	andi	a5,a5,-2
   12ac0:	00fb1623          	sh	a5,12(s6)
   12ac4:	f6dfe06f          	j	11a30 <printf_positional+0x792>
   12ac8:	008cb703          	ld	a4,8(s9)
   12acc:	010cb683          	ld	a3,16(s9)
   12ad0:	42d70e63          	beq	a4,a3,12f0c <printf_positional+0x1c6e>
   12ad4:	00170693          	addi	a3,a4,1
   12ad8:	00dcb423          	sd	a3,8(s9)
   12adc:	00f70023          	sb	a5,0(a4)
   12ae0:	ce7fe06f          	j	117c6 <printf_positional+0x528>
   12ae4:	02500593          	li	a1,37
   12ae8:	8566                	mv	a0,s9
   12aea:	642170ef          	jal	2a12c <__printf_buffer_putc_1>
   12aee:	c93fe06f          	j	11780 <printf_positional+0x4e2>
   12af2:	02500593          	li	a1,37
   12af6:	8566                	mv	a0,s9
   12af8:	634170ef          	jal	2a12c <__printf_buffer_putc_1>
   12afc:	b5ffe06f          	j	1165a <printf_positional+0x3bc>
   12b00:	777d                	lui	a4,0xfffff
   12b02:	73070713          	addi	a4,a4,1840 # fffffffffffff730 <__BSS_END__+0xfffffffffff8c0b8>
   12b06:	9722                	add	a4,a4,s0
   12b08:	03000593          	li	a1,48
   12b0c:	8566                	mv	a0,s9
   12b0e:	e31c                	sd	a5,0(a4)
   12b10:	61c170ef          	jal	2a12c <__printf_buffer_putc_1>
   12b14:	77fd                	lui	a5,0xfffff
   12b16:	73078793          	addi	a5,a5,1840 # fffffffffffff730 <__BSS_END__+0xfffffffffff8c0b8>
   12b1a:	97a2                	add	a5,a5,s0
   12b1c:	639c                	ld	a5,0(a5)
   12b1e:	9c8ff06f          	j	11ce6 <printf_positional+0xa48>
   12b22:	777d                	lui	a4,0xfffff
   12b24:	6e870713          	addi	a4,a4,1768 # fffffffffffff6e8 <__BSS_END__+0xfffffffffff8c070>
   12b28:	9722                	add	a4,a4,s0
   12b2a:	e31c                	sd	a5,0(a4)
   12b2c:	77fd                	lui	a5,0xfffff
   12b2e:	73078793          	addi	a5,a5,1840 # fffffffffffff730 <__BSS_END__+0xfffffffffff8c0b8>
   12b32:	97a2                	add	a5,a5,s0
   12b34:	e394                	sd	a3,0(a5)
   12b36:	02d00593          	li	a1,45
   12b3a:	8566                	mv	a0,s9
   12b3c:	5f0170ef          	jal	2a12c <__printf_buffer_putc_1>
   12b40:	77fd                	lui	a5,0xfffff
   12b42:	73078793          	addi	a5,a5,1840 # fffffffffffff730 <__BSS_END__+0xfffffffffff8c0b8>
   12b46:	97a2                	add	a5,a5,s0
   12b48:	6394                	ld	a3,0(a5)
   12b4a:	77fd                	lui	a5,0xfffff
   12b4c:	6e878793          	addi	a5,a5,1768 # fffffffffffff6e8 <__BSS_END__+0xfffffffffff8c070>
   12b50:	97a2                	add	a5,a5,s0
   12b52:	639c                	ld	a5,0(a5)
   12b54:	964ff06f          	j	11cb8 <printf_positional+0xa1a>
   12b58:	777d                	lui	a4,0xfffff
   12b5a:	6e070713          	addi	a4,a4,1760 # fffffffffffff6e0 <__BSS_END__+0xfffffffffff8c068>
   12b5e:	9722                	add	a4,a4,s0
   12b60:	e31c                	sd	a5,0(a4)
   12b62:	77fd                	lui	a5,0xfffff
   12b64:	6e878793          	addi	a5,a5,1768 # fffffffffffff6e8 <__BSS_END__+0xfffffffffff8c070>
   12b68:	97a2                	add	a5,a5,s0
   12b6a:	e394                	sd	a3,0(a5)
   12b6c:	77fd                	lui	a5,0xfffff
   12b6e:	73078793          	addi	a5,a5,1840 # fffffffffffff730 <__BSS_END__+0xfffffffffff8c0b8>
   12b72:	97a2                	add	a5,a5,s0
   12b74:	0067b023          	sd	t1,0(a5)
   12b78:	02d00593          	li	a1,45
   12b7c:	8566                	mv	a0,s9
   12b7e:	5ae170ef          	jal	2a12c <__printf_buffer_putc_1>
   12b82:	777d                	lui	a4,0xfffff
   12b84:	6e870713          	addi	a4,a4,1768 # fffffffffffff6e8 <__BSS_END__+0xfffffffffff8c070>
   12b88:	9722                	add	a4,a4,s0
   12b8a:	6314                	ld	a3,0(a4)
   12b8c:	777d                	lui	a4,0xfffff
   12b8e:	73070713          	addi	a4,a4,1840 # fffffffffffff730 <__BSS_END__+0xfffffffffff8c0b8>
   12b92:	9722                	add	a4,a4,s0
   12b94:	00073303          	ld	t1,0(a4)
   12b98:	77fd                	lui	a5,0xfffff
   12b9a:	6e078793          	addi	a5,a5,1760 # fffffffffffff6e0 <__BSS_END__+0xfffffffffff8c068>
   12b9e:	97a2                	add	a5,a5,s0
   12ba0:	639c                	ld	a5,0(a5)
   12ba2:	337d                	addiw	t1,t1,-1
   12ba4:	e1cff06f          	j	121c0 <printf_positional+0xf22>
   12ba8:	777d                	lui	a4,0xfffff
   12baa:	72870713          	addi	a4,a4,1832 # fffffffffffff728 <__BSS_END__+0xfffffffffff8c0b0>
   12bae:	9722                	add	a4,a4,s0
   12bb0:	e31c                	sd	a5,0(a4)
   12bb2:	77fd                	lui	a5,0xfffff
   12bb4:	73078793          	addi	a5,a5,1840 # fffffffffffff730 <__BSS_END__+0xfffffffffff8c0b8>
   12bb8:	97a2                	add	a5,a5,s0
   12bba:	03000593          	li	a1,48
   12bbe:	8566                	mv	a0,s9
   12bc0:	0067b023          	sd	t1,0(a5)
   12bc4:	568170ef          	jal	2a12c <__printf_buffer_putc_1>
   12bc8:	777d                	lui	a4,0xfffff
   12bca:	73070713          	addi	a4,a4,1840 # fffffffffffff730 <__BSS_END__+0xfffffffffff8c0b8>
   12bce:	9722                	add	a4,a4,s0
   12bd0:	00073303          	ld	t1,0(a4)
   12bd4:	77fd                	lui	a5,0xfffff
   12bd6:	72878793          	addi	a5,a5,1832 # fffffffffffff728 <__BSS_END__+0xfffffffffff8c0b0>
   12bda:	97a2                	add	a5,a5,s0
   12bdc:	639c                	ld	a5,0(a5)
   12bde:	337d                	addiw	t1,t1,-1
   12be0:	b0fd                	j	124ce <printf_positional+0x1230>
   12be2:	00a49023          	sh	a0,0(s1)
   12be6:	a75fe06f          	j	1165a <printf_positional+0x3bc>
   12bea:	070e                	slli	a4,a4,0x3
   12bec:	963a                	add	a2,a2,a4
   12bee:	fc063703          	ld	a4,-64(a2)
   12bf2:	e319                	bnez	a4,12bf8 <printf_positional+0x195a>
   12bf4:	d9ffe06f          	j	11992 <printf_positional+0x6f4>
   12bf8:	000a2703          	lw	a4,0(s4)
   12bfc:	85ce                	mv	a1,s3
   12bfe:	073d                	addi	a4,a4,15
   12c00:	9b41                	andi	a4,a4,-16
   12c02:	40e10133          	sub	sp,sp,a4
   12c06:	850a                	mv	a0,sp
   12c08:	00aab023          	sd	a0,0(s5)
   12c0c:	4090                	lw	a2,0(s1)
   12c0e:	000e3703          	ld	a4,0(t3)
   12c12:	060e                	slli	a2,a2,0x3
   12c14:	9732                	add	a4,a4,a2
   12c16:	fc073703          	ld	a4,-64(a4)
   12c1a:	9702                	jalr	a4
   12c1c:	d81fe06f          	j	1199c <printf_positional+0x6fe>
   12c20:	777d                	lui	a4,0xfffff
   12c22:	6e070713          	addi	a4,a4,1760 # fffffffffffff6e0 <__BSS_END__+0xfffffffffff8c068>
   12c26:	9722                	add	a4,a4,s0
   12c28:	e31c                	sd	a5,0(a4)
   12c2a:	77fd                	lui	a5,0xfffff
   12c2c:	6e878793          	addi	a5,a5,1768 # fffffffffffff6e8 <__BSS_END__+0xfffffffffff8c070>
   12c30:	97a2                	add	a5,a5,s0
   12c32:	e394                	sd	a3,0(a5)
   12c34:	77fd                	lui	a5,0xfffff
   12c36:	73078793          	addi	a5,a5,1840 # fffffffffffff730 <__BSS_END__+0xfffffffffff8c0b8>
   12c3a:	97a2                	add	a5,a5,s0
   12c3c:	0067b023          	sd	t1,0(a5)
   12c40:	02b00593          	li	a1,43
   12c44:	bf25                	j	12b7c <printf_positional+0x18de>
   12c46:	777d                	lui	a4,0xfffff
   12c48:	6e870713          	addi	a4,a4,1768 # fffffffffffff6e8 <__BSS_END__+0xfffffffffff8c070>
   12c4c:	9722                	add	a4,a4,s0
   12c4e:	e31c                	sd	a5,0(a4)
   12c50:	77fd                	lui	a5,0xfffff
   12c52:	73078793          	addi	a5,a5,1840 # fffffffffffff730 <__BSS_END__+0xfffffffffff8c0b8>
   12c56:	97a2                	add	a5,a5,s0
   12c58:	e394                	sd	a3,0(a5)
   12c5a:	02b00593          	li	a1,43
   12c5e:	bdf1                	j	12b3a <printf_positional+0x189c>
   12c60:	8566                	mv	a0,s9
   12c62:	4ca170ef          	jal	2a12c <__printf_buffer_putc_1>
   12c66:	908ff06f          	j	11d6e <printf_positional+0xad0>
   12c6a:	02e00593          	li	a1,46
   12c6e:	8566                	mv	a0,s9
   12c70:	4bc170ef          	jal	2a12c <__printf_buffer_putc_1>
   12c74:	b95fe06f          	j	11808 <printf_positional+0x56a>
   12c78:	777d                	lui	a4,0xfffff
   12c7a:	6e070713          	addi	a4,a4,1760 # fffffffffffff6e0 <__BSS_END__+0xfffffffffff8c068>
   12c7e:	9722                	add	a4,a4,s0
   12c80:	e31c                	sd	a5,0(a4)
   12c82:	77fd                	lui	a5,0xfffff
   12c84:	6e878793          	addi	a5,a5,1768 # fffffffffffff6e8 <__BSS_END__+0xfffffffffff8c070>
   12c88:	97a2                	add	a5,a5,s0
   12c8a:	e394                	sd	a3,0(a5)
   12c8c:	77fd                	lui	a5,0xfffff
   12c8e:	73078793          	addi	a5,a5,1840 # fffffffffffff730 <__BSS_END__+0xfffffffffff8c0b8>
   12c92:	97a2                	add	a5,a5,s0
   12c94:	0067b023          	sd	t1,0(a5)
   12c98:	02000593          	li	a1,32
   12c9c:	b5c5                	j	12b7c <printf_positional+0x18de>
   12c9e:	777d                	lui	a4,0xfffff
   12ca0:	6e870713          	addi	a4,a4,1768 # fffffffffffff6e8 <__BSS_END__+0xfffffffffff8c070>
   12ca4:	9722                	add	a4,a4,s0
   12ca6:	e31c                	sd	a5,0(a4)
   12ca8:	77fd                	lui	a5,0xfffff
   12caa:	73078793          	addi	a5,a5,1840 # fffffffffffff730 <__BSS_END__+0xfffffffffff8c0b8>
   12cae:	97a2                	add	a5,a5,s0
   12cb0:	02000593          	li	a1,32
   12cb4:	8566                	mv	a0,s9
   12cb6:	e394                	sd	a3,0(a5)
   12cb8:	474170ef          	jal	2a12c <__printf_buffer_putc_1>
   12cbc:	77fd                	lui	a5,0xfffff
   12cbe:	777d                	lui	a4,0xfffff
   12cc0:	6e878793          	addi	a5,a5,1768 # fffffffffffff6e8 <__BSS_END__+0xfffffffffff8c070>
   12cc4:	73070713          	addi	a4,a4,1840 # fffffffffffff730 <__BSS_END__+0xfffffffffff8c0b8>
   12cc8:	97a2                	add	a5,a5,s0
   12cca:	9722                	add	a4,a4,s0
   12ccc:	639c                	ld	a5,0(a5)
   12cce:	6314                	ld	a3,0(a4)
   12cd0:	fe9fe06f          	j	11cb8 <printf_positional+0xa1a>
   12cd4:	77fd                	lui	a5,0xfffff
   12cd6:	71078793          	addi	a5,a5,1808 # fffffffffffff710 <__BSS_END__+0xfffffffffff8c098>
   12cda:	97a2                	add	a5,a5,s0
   12cdc:	639c                	ld	a5,0(a5)
   12cde:	777d                	lui	a4,0xfffff
   12ce0:	70070713          	addi	a4,a4,1792 # fffffffffffff700 <__BSS_END__+0xfffffffffff8c088>
   12ce4:	767d                	lui	a2,0xfffff
   12ce6:	9722                	add	a4,a4,s0
   12ce8:	6d060613          	addi	a2,a2,1744 # fffffffffffff6d0 <__BSS_END__+0xfffffffffff8c058>
   12cec:	e31c                	sd	a5,0(a4)
   12cee:	9622                	add	a2,a2,s0
   12cf0:	02000713          	li	a4,32
   12cf4:	4681                	li	a3,0
   12cf6:	4f01                	li	t5,0
   12cf8:	4d81                	li	s11,0
   12cfa:	4781                	li	a5,0
   12cfc:	e218                	sd	a4,0(a2)
   12cfe:	4a81                	li	s5,0
   12d00:	f49fe06f          	j	11c48 <printf_positional+0x9aa>
   12d04:	77fd                	lui	a5,0xfffff
   12d06:	71078793          	addi	a5,a5,1808 # fffffffffffff710 <__BSS_END__+0xfffffffffff8c098>
   12d0a:	97a2                	add	a5,a5,s0
   12d0c:	639c                	ld	a5,0(a5)
   12d0e:	777d                	lui	a4,0xfffff
   12d10:	70070713          	addi	a4,a4,1792 # fffffffffffff700 <__BSS_END__+0xfffffffffff8c088>
   12d14:	9722                	add	a4,a4,s0
   12d16:	e31c                	sd	a5,0(a4)
   12d18:	4f01                	li	t5,0
   12d1a:	4681                	li	a3,0
   12d1c:	4781                	li	a5,0
   12d1e:	777d                	lui	a4,0xfffff
   12d20:	6a870713          	addi	a4,a4,1704 # fffffffffffff6a8 <__BSS_END__+0xfffffffffff8c030>
   12d24:	9722                	add	a4,a4,s0
   12d26:	e31c                	sd	a5,0(a4)
   12d28:	77fd                	lui	a5,0xfffff
   12d2a:	6d078793          	addi	a5,a5,1744 # fffffffffffff6d0 <__BSS_END__+0xfffffffffff8c058>
   12d2e:	97a2                	add	a5,a5,s0
   12d30:	01e7b023          	sd	t5,0(a5)
   12d34:	77fd                	lui	a5,0xfffff
   12d36:	0005bd97          	auipc	s11,0x5b
   12d3a:	3a2dbd83          	ld	s11,930(s11) # 6e0d8 <_GLOBAL_OFFSET_TABLE_+0x358>
   12d3e:	6e078793          	addi	a5,a5,1760 # fffffffffffff6e0 <__BSS_END__+0xfffffffffff8c068>
   12d42:	97a2                	add	a5,a5,s0
   12d44:	01c7b023          	sd	t3,0(a5)
   12d48:	77fd                	lui	a5,0xfffff
   12d4a:	9d92                	add	s11,s11,tp
   12d4c:	6e878793          	addi	a5,a5,1768 # fffffffffffff6e8 <__BSS_END__+0xfffffffffff8c070>
   12d50:	97a2                	add	a5,a5,s0
   12d52:	757d                	lui	a0,0xfffff
   12d54:	000db603          	ld	a2,0(s11)
   12d58:	0067b023          	sd	t1,0(a5)
   12d5c:	75850793          	addi	a5,a0,1880 # fffffffffffff758 <__BSS_END__+0xfffffffffff8c0e0>
   12d60:	00878533          	add	a0,a5,s0
   12d64:	4585                	li	a1,1
   12d66:	1ca170ef          	jal	29f30 <__grouping_iterator_init>
   12d6a:	77fd                	lui	a5,0xfffff
   12d6c:	70878793          	addi	a5,a5,1800 # fffffffffffff708 <__BSS_END__+0xfffffffffff8c090>
   12d70:	97a2                	add	a5,a5,s0
   12d72:	6398                	ld	a4,0(a5)
   12d74:	77fd                	lui	a5,0xfffff
   12d76:	6e878793          	addi	a5,a5,1768 # fffffffffffff6e8 <__BSS_END__+0xfffffffffff8c070>
   12d7a:	97a2                	add	a5,a5,s0
   12d7c:	0007b303          	ld	t1,0(a5)
   12d80:	77fd                	lui	a5,0xfffff
   12d82:	6e078793          	addi	a5,a5,1760 # fffffffffffff6e0 <__BSS_END__+0xfffffffffff8c068>
   12d86:	97a2                	add	a5,a5,s0
   12d88:	0007be03          	ld	t3,0(a5)
   12d8c:	77fd                	lui	a5,0xfffff
   12d8e:	6d078793          	addi	a5,a5,1744 # fffffffffffff6d0 <__BSS_END__+0xfffffffffff8c058>
   12d92:	97a2                	add	a5,a5,s0
   12d94:	0007bf03          	ld	t5,0(a5)
   12d98:	77fd                	lui	a5,0xfffff
   12d9a:	6a878793          	addi	a5,a5,1704 # fffffffffffff6a8 <__BSS_END__+0xfffffffffff8c030>
   12d9e:	97a2                	add	a5,a5,s0
   12da0:	639c                	ld	a5,0(a5)
   12da2:	4681                	li	a3,0
   12da4:	e70d                	bnez	a4,12dce <printf_positional+0x1b30>
   12da6:	767d                	lui	a2,0xfffff
   12da8:	6d060613          	addi	a2,a2,1744 # fffffffffffff6d0 <__BSS_END__+0xfffffffffff8c058>
   12dac:	02000713          	li	a4,32
   12db0:	9622                	add	a2,a2,s0
   12db2:	4e01                	li	t3,0
   12db4:	4d81                	li	s11,0
   12db6:	e218                	sd	a4,0(a2)
   12db8:	bb2ff06f          	j	1216a <printf_positional+0xecc>
   12dbc:	77fd                	lui	a5,0xfffff
   12dbe:	73078793          	addi	a5,a5,1840 # fffffffffffff730 <__BSS_END__+0xfffffffffff8c0b8>
   12dc2:	97a2                	add	a5,a5,s0
   12dc4:	0007bf03          	ld	t5,0(a5)
   12dc8:	4685                	li	a3,1
   12dca:	4785                	li	a5,1
   12dcc:	bf89                	j	12d1e <printf_positional+0x1a80>
   12dce:	777d                	lui	a4,0xfffff
   12dd0:	69870713          	addi	a4,a4,1688 # fffffffffffff698 <__BSS_END__+0xfffffffffff8c020>
   12dd4:	767d                	lui	a2,0xfffff
   12dd6:	9722                	add	a4,a4,s0
   12dd8:	6d060613          	addi	a2,a2,1744 # fffffffffffff6d0 <__BSS_END__+0xfffffffffff8c058>
   12ddc:	00073a83          	ld	s5,0(a4)
   12de0:	9622                	add	a2,a2,s0
   12de2:	02000713          	li	a4,32
   12de6:	4d81                	li	s11,0
   12de8:	e218                	sd	a4,0(a2)
   12dea:	df6ff06f          	j	123e0 <printf_positional+0x1142>
   12dee:	777d                	lui	a4,0xfffff
   12df0:	6e870713          	addi	a4,a4,1768 # fffffffffffff6e8 <__BSS_END__+0xfffffffffff8c070>
   12df4:	9722                	add	a4,a4,s0
   12df6:	e31c                	sd	a5,0(a4)
   12df8:	77fd                	lui	a5,0xfffff
   12dfa:	72878793          	addi	a5,a5,1832 # fffffffffffff728 <__BSS_END__+0xfffffffffff8c0b0>
   12dfe:	97a2                	add	a5,a5,s0
   12e00:	e394                	sd	a3,0(a5)
   12e02:	77fd                	lui	a5,0xfffff
   12e04:	73078793          	addi	a5,a5,1840 # fffffffffffff730 <__BSS_END__+0xfffffffffff8c0b8>
   12e08:	97a2                	add	a5,a5,s0
   12e0a:	85de                	mv	a1,s7
   12e0c:	8566                	mv	a0,s9
   12e0e:	0067b023          	sd	t1,0(a5)
   12e12:	31a170ef          	jal	2a12c <__printf_buffer_putc_1>
   12e16:	777d                	lui	a4,0xfffff
   12e18:	72870713          	addi	a4,a4,1832 # fffffffffffff728 <__BSS_END__+0xfffffffffff8c0b0>
   12e1c:	9722                	add	a4,a4,s0
   12e1e:	6314                	ld	a3,0(a4)
   12e20:	777d                	lui	a4,0xfffff
   12e22:	73070713          	addi	a4,a4,1840 # fffffffffffff730 <__BSS_END__+0xfffffffffff8c0b8>
   12e26:	9722                	add	a4,a4,s0
   12e28:	00073303          	ld	t1,0(a4)
   12e2c:	77fd                	lui	a5,0xfffff
   12e2e:	6e878793          	addi	a5,a5,1768 # fffffffffffff6e8 <__BSS_END__+0xfffffffffff8c070>
   12e32:	97a2                	add	a5,a5,s0
   12e34:	639c                	ld	a5,0(a5)
   12e36:	3379                	addiw	t1,t1,-2
   12e38:	baeff06f          	j	121e6 <printf_positional+0xf48>
   12e3c:	777d                	lui	a4,0xfffff
   12e3e:	6e870713          	addi	a4,a4,1768 # fffffffffffff6e8 <__BSS_END__+0xfffffffffff8c070>
   12e42:	9722                	add	a4,a4,s0
   12e44:	e31c                	sd	a5,0(a4)
   12e46:	77fd                	lui	a5,0xfffff
   12e48:	72878793          	addi	a5,a5,1832 # fffffffffffff728 <__BSS_END__+0xfffffffffff8c0b0>
   12e4c:	97a2                	add	a5,a5,s0
   12e4e:	e394                	sd	a3,0(a5)
   12e50:	77fd                	lui	a5,0xfffff
   12e52:	73078793          	addi	a5,a5,1840 # fffffffffffff730 <__BSS_END__+0xfffffffffff8c0b8>
   12e56:	97a2                	add	a5,a5,s0
   12e58:	03000593          	li	a1,48
   12e5c:	8566                	mv	a0,s9
   12e5e:	0067b023          	sd	t1,0(a5)
   12e62:	2ca170ef          	jal	2a12c <__printf_buffer_putc_1>
   12e66:	777d                	lui	a4,0xfffff
   12e68:	72870713          	addi	a4,a4,1832 # fffffffffffff728 <__BSS_END__+0xfffffffffff8c0b0>
   12e6c:	9722                	add	a4,a4,s0
   12e6e:	6314                	ld	a3,0(a4)
   12e70:	77fd                	lui	a5,0xfffff
   12e72:	777d                	lui	a4,0xfffff
   12e74:	6e878793          	addi	a5,a5,1768 # fffffffffffff6e8 <__BSS_END__+0xfffffffffff8c070>
   12e78:	73070713          	addi	a4,a4,1840 # fffffffffffff730 <__BSS_END__+0xfffffffffff8c0b8>
   12e7c:	97a2                	add	a5,a5,s0
   12e7e:	9722                	add	a4,a4,s0
   12e80:	639c                	ld	a5,0(a5)
   12e82:	00073303          	ld	t1,0(a4)
   12e86:	ba91                	j	127da <printf_positional+0x153c>
   12e88:	777d                	lui	a4,0xfffff
   12e8a:	72870713          	addi	a4,a4,1832 # fffffffffffff728 <__BSS_END__+0xfffffffffff8c0b0>
   12e8e:	9722                	add	a4,a4,s0
   12e90:	e31c                	sd	a5,0(a4)
   12e92:	77fd                	lui	a5,0xfffff
   12e94:	73078793          	addi	a5,a5,1840 # fffffffffffff730 <__BSS_END__+0xfffffffffff8c0b8>
   12e98:	97a2                	add	a5,a5,s0
   12e9a:	85de                	mv	a1,s7
   12e9c:	8566                	mv	a0,s9
   12e9e:	e394                	sd	a3,0(a5)
   12ea0:	28c170ef          	jal	2a12c <__printf_buffer_putc_1>
   12ea4:	777d                	lui	a4,0xfffff
   12ea6:	73070713          	addi	a4,a4,1840 # fffffffffffff730 <__BSS_END__+0xfffffffffff8c0b8>
   12eaa:	9722                	add	a4,a4,s0
   12eac:	77fd                	lui	a5,0xfffff
   12eae:	6314                	ld	a3,0(a4)
   12eb0:	72878793          	addi	a5,a5,1832 # fffffffffffff728 <__BSS_END__+0xfffffffffff8c0b0>
   12eb4:	97a2                	add	a5,a5,s0
   12eb6:	639c                	ld	a5,0(a5)
   12eb8:	00d04463          	bgtz	a3,12ec0 <printf_positional+0x1c22>
   12ebc:	e27fe06f          	j	11ce2 <printf_positional+0xa44>
   12ec0:	850ff06f          	j	11f10 <printf_positional+0xc72>
   12ec4:	777d                	lui	a4,0xfffff
   12ec6:	72870713          	addi	a4,a4,1832 # fffffffffffff728 <__BSS_END__+0xfffffffffff8c0b0>
   12eca:	9722                	add	a4,a4,s0
   12ecc:	e31c                	sd	a5,0(a4)
   12ece:	77fd                	lui	a5,0xfffff
   12ed0:	73078793          	addi	a5,a5,1840 # fffffffffffff730 <__BSS_END__+0xfffffffffff8c0b8>
   12ed4:	97a2                	add	a5,a5,s0
   12ed6:	03000593          	li	a1,48
   12eda:	8566                	mv	a0,s9
   12edc:	e394                	sd	a3,0(a5)
   12ede:	24e170ef          	jal	2a12c <__printf_buffer_putc_1>
   12ee2:	77fd                	lui	a5,0xfffff
   12ee4:	777d                	lui	a4,0xfffff
   12ee6:	72878793          	addi	a5,a5,1832 # fffffffffffff728 <__BSS_END__+0xfffffffffff8c0b0>
   12eea:	73070713          	addi	a4,a4,1840 # fffffffffffff730 <__BSS_END__+0xfffffffffff8c0b8>
   12eee:	97a2                	add	a5,a5,s0
   12ef0:	9722                	add	a4,a4,s0
   12ef2:	639c                	ld	a5,0(a5)
   12ef4:	6314                	ld	a3,0(a4)
   12ef6:	894ff06f          	j	11f8a <printf_positional+0xcec>
   12efa:	02000593          	li	a1,32
   12efe:	8566                	mv	a0,s9
   12f00:	22c170ef          	jal	2a12c <__printf_buffer_putc_1>
   12f04:	00cb5783          	lhu	a5,12(s6)
   12f08:	8a5fe06f          	j	117ac <printf_positional+0x50e>
   12f0c:	03000593          	li	a1,48
   12f10:	8566                	mv	a0,s9
   12f12:	21a170ef          	jal	2a12c <__printf_buffer_putc_1>
   12f16:	8b1fe06f          	j	117c6 <printf_positional+0x528>
   12f1a:	8f26                	mv	t5,s1
   12f1c:	4785                	li	a5,1
   12f1e:	b64ff06f          	j	12282 <printf_positional+0xfe4>
   12f22:	00038517          	auipc	a0,0x38
   12f26:	c1e50513          	addi	a0,a0,-994 # 4ab40 <__PRETTY_FUNCTION__.1+0x88>
   12f2a:	107010ef          	jal	14830 <__libc_fatal>

0000000000012f2e <__printf_buffer>:
   12f2e:	0005b797          	auipc	a5,0x5b
   12f32:	07a7b783          	ld	a5,122(a5) # 6dfa8 <_GLOBAL_OFFSET_TABLE_+0x228>
   12f36:	a9010113          	addi	sp,sp,-1392
   12f3a:	55213823          	sd	s2,1360(sp)
   12f3e:	e93e                	sd	a5,144(sp)
   12f40:	9792                	add	a5,a5,tp
   12f42:	439c                	lw	a5,0(a5)
   12f44:	892e                	mv	s2,a1
   12f46:	56813023          	sd	s0,1376(sp)
   12f4a:	e12e                	sd	a1,128(sp)
   12f4c:	842a                	mv	s0,a0
   12f4e:	02500593          	li	a1,37
   12f52:	854a                	mv	a0,s2
   12f54:	f8be                	sd	a5,112(sp)
   12f56:	56113423          	sd	ra,1384(sp)
   12f5a:	54913c23          	sd	s1,1368(sp)
   12f5e:	55313423          	sd	s3,1352(sp)
   12f62:	55413023          	sd	s4,1344(sp)
   12f66:	84b2                	mv	s1,a2
   12f68:	8a36                	mv	s4,a3
   12f6a:	fcb6                	sd	a3,120(sp)
   12f6c:	f1b2                	sd	a2,224(sp)
   12f6e:	53513c23          	sd	s5,1336(sp)
   12f72:	53613823          	sd	s6,1328(sp)
   12f76:	53713423          	sd	s7,1320(sp)
   12f7a:	53813023          	sd	s8,1312(sp)
   12f7e:	51913c23          	sd	s9,1304(sp)
   12f82:	51a13823          	sd	s10,1296(sp)
   12f86:	51b13423          	sd	s11,1288(sp)
   12f8a:	43a060ef          	jal	193c4 <__strchrnul>
   12f8e:	89aa                	mv	s3,a0
   12f90:	e52a                	sd	a0,136(sp)
   12f92:	41250633          	sub	a2,a0,s2
   12f96:	85ca                	mv	a1,s2
   12f98:	8522                	mv	a0,s0
   12f9a:	edce                	sd	s3,216(sp)
   12f9c:	3f0170ef          	jal	2a38c <__printf_buffer_write>
   12fa0:	501c                	lw	a5,32(s0)
   12fa2:	cbbd                	beqz	a5,13018 <__printf_buffer+0xea>
   12fa4:	0009c783          	lbu	a5,0(s3)
   12fa8:	cba5                	beqz	a5,13018 <__printf_buffer+0xea>
   12faa:	00060797          	auipc	a5,0x60
   12fae:	3ee7b783          	ld	a5,1006(a5) # 73398 <__printf_function_table>
   12fb2:	f0be                	sd	a5,96(sp)
   12fb4:	5c0792e3          	bnez	a5,13d78 <__printf_buffer+0xe4a>
   12fb8:	00060797          	auipc	a5,0x60
   12fbc:	3c87b783          	ld	a5,968(a5) # 73380 <__printf_modifier_table>
   12fc0:	260795e3          	bnez	a5,13a2a <__printf_buffer+0xafc>
   12fc4:	00060797          	auipc	a5,0x60
   12fc8:	6ac7b783          	ld	a5,1708(a5) # 73670 <__printf_va_arg_table>
   12fcc:	24079fe3          	bnez	a5,13a2a <__printf_buffer+0xafc>
   12fd0:	0005b797          	auipc	a5,0x5b
   12fd4:	1087b783          	ld	a5,264(a5) # 6e0d8 <_GLOBAL_OFFSET_TABLE_+0x358>
   12fd8:	fd02                	sd	zero,184(sp)
   12fda:	4a81                	li	s5,0
   12fdc:	f13e                	sd	a5,160(sp)
   12fde:	57fd                	li	a5,-1
   12fe0:	f93e                	sd	a5,176(sp)
   12fe2:	001a7793          	andi	a5,s4,1
   12fe6:	e1be                	sd	a5,192(sp)
   12fe8:	6785                	lui	a5,0x1
   12fea:	8ff78793          	addi	a5,a5,-1793 # 8ff <__libc_dlerror_result+0x8af>
   12fee:	e5be                	sd	a5,200(sp)
   12ff0:	0019ca03          	lbu	s4,1(s3)
   12ff4:	0985                	addi	s3,s3,1
   12ff6:	edce                	sd	s3,216(sp)
   12ff8:	fe0a071b          	addiw	a4,s4,-32
   12ffc:	0ff77613          	zext.b	a2,a4
   13000:	05a00693          	li	a3,90
   13004:	04c6f763          	bgeu	a3,a2,13052 <__printf_buffer+0x124>
   13008:	220a15e3          	bnez	s4,13a32 <__printf_buffer+0xb04>
   1300c:	67ca                	ld	a5,144(sp)
   1300e:	4759                	li	a4,22
   13010:	9792                	add	a5,a5,tp
   13012:	c398                	sw	a4,0(a5)
   13014:	02042023          	sw	zero,32(s0)
   13018:	56813083          	ld	ra,1384(sp)
   1301c:	56013403          	ld	s0,1376(sp)
   13020:	55813483          	ld	s1,1368(sp)
   13024:	55013903          	ld	s2,1360(sp)
   13028:	54813983          	ld	s3,1352(sp)
   1302c:	54013a03          	ld	s4,1344(sp)
   13030:	53813a83          	ld	s5,1336(sp)
   13034:	53013b03          	ld	s6,1328(sp)
   13038:	52813b83          	ld	s7,1320(sp)
   1303c:	52013c03          	ld	s8,1312(sp)
   13040:	51813c83          	ld	s9,1304(sp)
   13044:	51013d03          	ld	s10,1296(sp)
   13048:	50813d83          	ld	s11,1288(sp)
   1304c:	57010113          	addi	sp,sp,1392
   13050:	8082                	ret
   13052:	00038c17          	auipc	s8,0x38
   13056:	b5ec0c13          	addi	s8,s8,-1186 # 4abb0 <jump_table>
   1305a:	2701                	sext.w	a4,a4
   1305c:	9762                	add	a4,a4,s8
   1305e:	00074703          	lbu	a4,0(a4)
   13062:	02000793          	li	a5,32
   13066:	e8be                	sd	a5,80(sp)
   13068:	070e                	slli	a4,a4,0x3
   1306a:	00056797          	auipc	a5,0x56
   1306e:	44e78793          	addi	a5,a5,1102 # 694b8 <step4_jumps.0>
   13072:	973e                	add	a4,a4,a5
   13074:	7f74                	ld	a3,248(a4)
   13076:	f402                	sd	zero,40(sp)
   13078:	587d                	li	a6,-1
   1307a:	4981                	li	s3,0
   1307c:	4d81                	li	s11,0
   1307e:	4901                	li	s2,0
   13080:	4c81                	li	s9,0
   13082:	4b81                	li	s7,0
   13084:	4d01                	li	s10,0
   13086:	f802                	sd	zero,48(sp)
   13088:	4b01                	li	s6,0
   1308a:	e082                	sd	zero,64(sp)
   1308c:	e482                	sd	zero,72(sp)
   1308e:	8682                	jr	a3
   13090:	66ee                	ld	a3,216(sp)
   13092:	05a00613          	li	a2,90
   13096:	0016ca03          	lbu	s4,1(a3)
   1309a:	0685                	addi	a3,a3,1
   1309c:	edb6                	sd	a3,216(sp)
   1309e:	fe0a069b          	addiw	a3,s4,-32
   130a2:	0ff6f593          	zext.b	a1,a3
   130a6:	f6b661e3          	bltu	a2,a1,13008 <__printf_buffer+0xda>
   130aa:	2681                	sext.w	a3,a3
   130ac:	96e2                	add	a3,a3,s8
   130ae:	0006c683          	lbu	a3,0(a3)
   130b2:	00056797          	auipc	a5,0x56
   130b6:	40678793          	addi	a5,a5,1030 # 694b8 <step4_jumps.0>
   130ba:	4905                	li	s2,1
   130bc:	068e                	slli	a3,a3,0x3
   130be:	96be                	add	a3,a3,a5
   130c0:	4d86b683          	ld	a3,1240(a3)
   130c4:	4b81                	li	s7,0
   130c6:	8682                	jr	a3
   130c8:	678e                	ld	a5,192(sp)
   130ca:	500792e3          	bnez	a5,13dce <__printf_buffer+0xea0>
   130ce:	86de                	mv	a3,s7
   130d0:	67a6                	ld	a5,72(sp)
   130d2:	001c961b          	slliw	a2,s9,0x1
   130d6:	8ed1                	or	a3,a3,a2
   130d8:	0037961b          	slliw	a2,a5,0x3
   130dc:	6786                	ld	a5,64(sp)
   130de:	0029189b          	slliw	a7,s2,0x2
   130e2:	0116e6b3          	or	a3,a3,a7
   130e6:	8ed1                	or	a3,a3,a2
   130e8:	0047961b          	slliw	a2,a5,0x4
   130ec:	77c2                	ld	a5,48(sp)
   130ee:	8ed1                	or	a3,a3,a2
   130f0:	005b1b1b          	slliw	s6,s6,0x5
   130f4:	0067961b          	slliw	a2,a5,0x6
   130f8:	77a2                	ld	a5,40(sp)
   130fa:	0166e6b3          	or	a3,a3,s6
   130fe:	8ed1                	or	a3,a3,a2
   13100:	007d171b          	slliw	a4,s10,0x7
   13104:	8f55                	or	a4,a4,a3
   13106:	00b7969b          	slliw	a3,a5,0xb
   1310a:	8f55                	or	a4,a4,a3
   1310c:	66ae                	ld	a3,200(sp)
   1310e:	10012623          	sw	zero,268(sp)
   13112:	000a079b          	sext.w	a5,s4
   13116:	8f75                	and	a4,a4,a3
   13118:	10e11623          	sh	a4,268(sp)
   1311c:	6746                	ld	a4,80(sp)
   1311e:	11012023          	sw	a6,256(sp)
   13122:	11312223          	sw	s3,260(sp)
   13126:	10f12423          	sw	a5,264(sp)
   1312a:	10e12823          	sw	a4,272(sp)
   1312e:	0a0b9163          	bnez	s7,131d0 <__printf_buffer+0x2a2>
   13132:	209c                	fld	fa5,0(s1)
   13134:	04a1                	addi	s1,s1,8
   13136:	b9be                	fsd	fa5,240(sp)
   13138:	770a                	ld	a4,160(sp)
   1313a:	0df7f793          	andi	a5,a5,223
   1313e:	0210                	addi	a2,sp,256
   13140:	004706b3          	add	a3,a4,tp
   13144:	1998                	addi	a4,sp,240
   13146:	f5ba                	sd	a4,232(sp)
   13148:	04100713          	li	a4,65
   1314c:	628c                	ld	a1,0(a3)
   1314e:	8522                	mv	a0,s0
   13150:	11b4                	addi	a3,sp,232
   13152:	0ce788e3          	beq	a5,a4,13a22 <__printf_buffer+0xaf4>
   13156:	3f3180ef          	jal	2bd48 <__printf_fp_l_buffer>
   1315a:	6b6e                	ld	s6,216(sp)
   1315c:	02500593          	li	a1,37
   13160:	2a85                	addiw	s5,s5,1
   13162:	0b05                	addi	s6,s6,1
   13164:	855a                	mv	a0,s6
   13166:	25e060ef          	jal	193c4 <__strchrnul>
   1316a:	89aa                	mv	s3,a0
   1316c:	41650633          	sub	a2,a0,s6
   13170:	85da                	mv	a1,s6
   13172:	8522                	mv	a0,s0
   13174:	edce                	sd	s3,216(sp)
   13176:	216170ef          	jal	2a38c <__printf_buffer_write>
   1317a:	0009c783          	lbu	a5,0(s3)
   1317e:	e8078de3          	beqz	a5,13018 <__printf_buffer+0xea>
   13182:	501c                	lw	a5,32(s0)
   13184:	e60796e3          	bnez	a5,12ff0 <__printf_buffer+0xc2>
   13188:	bd41                	j	13018 <__printf_buffer+0xea>
   1318a:	408c                	lw	a1,0(s1)
   1318c:	10010b93          	addi	s7,sp,256
   13190:	1990                	addi	a2,sp,240
   13192:	855e                	mv	a0,s7
   13194:	f982                	sd	zero,240(sp)
   13196:	121060ef          	jal	19ab6 <__wcrtomb>
   1319a:	57fd                	li	a5,-1
   1319c:	8c2a                	mv	s8,a0
   1319e:	04a1                	addi	s1,s1,8
   131a0:	e6f50ae3          	beq	a0,a5,13014 <__printf_buffer+0xe6>
   131a4:	40a989bb          	subw	s3,s3,a0
   131a8:	00098c9b          	sext.w	s9,s3
   131ac:	020b1a63          	bnez	s6,131e0 <__printf_buffer+0x2b2>
   131b0:	01905a63          	blez	s9,131c4 <__printf_buffer+0x296>
   131b4:	02099613          	slli	a2,s3,0x20
   131b8:	9201                	srli	a2,a2,0x20
   131ba:	8522                	mv	a0,s0
   131bc:	02000593          	li	a1,32
   131c0:	6e7160ef          	jal	2a0a6 <__printf_buffer_pad_1>
   131c4:	8662                	mv	a2,s8
   131c6:	85de                	mv	a1,s7
   131c8:	8522                	mv	a0,s0
   131ca:	1c2170ef          	jal	2a38c <__printf_buffer_write>
   131ce:	b771                	j	1315a <__printf_buffer+0x22c>
   131d0:	04bd                	addi	s1,s1,15
   131d2:	98c1                	andi	s1,s1,-16
   131d4:	6094                	ld	a3,0(s1)
   131d6:	6498                	ld	a4,8(s1)
   131d8:	04c1                	addi	s1,s1,16
   131da:	f9b6                	sd	a3,240(sp)
   131dc:	fdba                	sd	a4,248(sp)
   131de:	bfa9                	j	13138 <__printf_buffer+0x20a>
   131e0:	862a                	mv	a2,a0
   131e2:	85de                	mv	a1,s7
   131e4:	8522                	mv	a0,s0
   131e6:	1a6170ef          	jal	2a38c <__printf_buffer_write>
   131ea:	f79058e3          	blez	s9,1315a <__printf_buffer+0x22c>
   131ee:	02099613          	slli	a2,s3,0x20
   131f2:	9201                	srli	a2,a2,0x20
   131f4:	02000593          	li	a1,32
   131f8:	8522                	mv	a0,s0
   131fa:	6ad160ef          	jal	2a0a6 <__printf_buffer_pad_1>
   131fe:	bfb1                	j	1315a <__printf_buffer+0x22c>
   13200:	0004bc03          	ld	s8,0(s1)
   13204:	04a1                	addi	s1,s1,8
   13206:	0c0c12e3          	bnez	s8,13aca <__printf_buffer+0xb9c>
   1320a:	57fd                	li	a5,-1
   1320c:	00f80563          	beq	a6,a5,13216 <__printf_buffer+0x2e8>
   13210:	4795                	li	a5,5
   13212:	2b07d3e3          	bge	a5,a6,13cb8 <__printf_buffer+0xd8a>
   13216:	4799                	li	a5,6
   13218:	4b99                	li	s7,6
   1321a:	00038c17          	auipc	s8,0x38
   1321e:	96ec0c13          	addi	s8,s8,-1682 # 4ab88 <null>
   13222:	a885                	j	13292 <__printf_buffer+0x364>
   13224:	f60913e3          	bnez	s2,1318a <__printf_buffer+0x25c>
   13228:	39fd                	addiw	s3,s3,-1
   1322a:	000b1463          	bnez	s6,13232 <__printf_buffer+0x304>
   1322e:	2f3049e3          	bgtz	s3,13d20 <__printf_buffer+0xdf2>
   13232:	641c                	ld	a5,8(s0)
   13234:	6818                	ld	a4,16(s0)
   13236:	0004c583          	lbu	a1,0(s1)
   1323a:	04a1                	addi	s1,s1,8
   1323c:	3ee788e3          	beq	a5,a4,13e2c <__printf_buffer+0xefe>
   13240:	00178713          	addi	a4,a5,1
   13244:	e418                	sd	a4,8(s0)
   13246:	00b78023          	sb	a1,0(a5)
   1324a:	f00b08e3          	beqz	s6,1315a <__printf_buffer+0x22c>
   1324e:	f13056e3          	blez	s3,1315a <__printf_buffer+0x22c>
   13252:	864e                	mv	a2,s3
   13254:	02000593          	li	a1,32
   13258:	8522                	mv	a0,s0
   1325a:	64d160ef          	jal	2a0a6 <__printf_buffer_pad_1>
   1325e:	bdf5                	j	1315a <__printf_buffer+0x22c>
   13260:	67a6                	ld	a5,72(sp)
   13262:	fc42                	sd	a6,56(sp)
   13264:	100780e3          	beqz	a5,13b64 <__printf_buffer+0xc36>
   13268:	7546                	ld	a0,112(sp)
   1326a:	675000ef          	jal	140de <__get_errname>
   1326e:	7862                	ld	a6,56(sp)
   13270:	8c2a                	mv	s8,a0
   13272:	1e0c08e3          	beqz	s8,13c62 <__printf_buffer+0xd34>
   13276:	05300713          	li	a4,83
   1327a:	04ea0ae3          	beq	s4,a4,13ace <__printf_buffer+0xba0>
   1327e:	57fd                	li	a5,-1
   13280:	32f80fe3          	beq	a6,a5,13dbe <__printf_buffer+0xe90>
   13284:	85c2                	mv	a1,a6
   13286:	8562                	mv	a0,s8
   13288:	2bc060ef          	jal	19544 <__strnlen>
   1328c:	8baa                	mv	s7,a0
   1328e:	0005079b          	sext.w	a5,a0
   13292:	40f989bb          	subw	s3,s3,a5
   13296:	00098c9b          	sext.w	s9,s3
   1329a:	000cc663          	bltz	s9,132a6 <__printf_buffer+0x378>
   1329e:	0e0b15e3          	bnez	s6,13b88 <__printf_buffer+0xc5a>
   132a2:	220c93e3          	bnez	s9,13cc8 <__printf_buffer+0xd9a>
   132a6:	865e                	mv	a2,s7
   132a8:	85e2                	mv	a1,s8
   132aa:	8522                	mv	a0,s0
   132ac:	0e0170ef          	jal	2a38c <__printf_buffer_write>
   132b0:	b56d                	j	1315a <__printf_buffer+0x22c>
   132b2:	77e6                	ld	a5,120(sp)
   132b4:	8b89                	andi	a5,a5,2
   132b6:	c781                	beqz	a5,132be <__printf_buffer+0x390>
   132b8:	77ea                	ld	a5,184(sp)
   132ba:	2c0785e3          	beqz	a5,13d84 <__printf_buffer+0xe56>
   132be:	8522                	mv	a0,s0
   132c0:	0004b983          	ld	s3,0(s1)
   132c4:	5a1160ef          	jal	2a064 <__printf_buffer_done>
   132c8:	04a1                	addi	s1,s1,8
   132ca:	0a0907e3          	beqz	s2,13b78 <__printf_buffer+0xc4a>
   132ce:	1502                	slli	a0,a0,0x20
   132d0:	9101                	srli	a0,a0,0x20
   132d2:	00a9b023          	sd	a0,0(s3)
   132d6:	b551                	j	1315a <__printf_buffer+0x22c>
   132d8:	0004bb83          	ld	s7,0(s1)
   132dc:	04a1                	addi	s1,s1,8
   132de:	160b86e3          	beqz	s7,13c4a <__printf_buffer+0xd1c>
   132e2:	4785                	li	a5,1
   132e4:	e4be                	sd	a5,72(sp)
   132e6:	47c1                	li	a5,16
   132e8:	07800a13          	li	s4,120
   132ec:	4d01                	li	s10,0
   132ee:	fc3e                	sd	a5,56(sp)
   132f0:	4901                	li	s2,0
   132f2:	12084e63          	bltz	a6,1342e <__printf_buffer+0x500>
   132f6:	64080563          	beqz	a6,13940 <__printf_buffer+0xa12>
   132fa:	02000793          	li	a5,32
   132fe:	8cc2                	mv	s9,a6
   13300:	e8be                	sd	a5,80(sp)
   13302:	7662                	ld	a2,56(sp)
   13304:	fa8a0693          	addi	a3,s4,-88
   13308:	0016b693          	seqz	a3,a3
   1330c:	50010593          	addi	a1,sp,1280
   13310:	855e                	mv	a0,s7
   13312:	f4c2                	sd	a6,104(sp)
   13314:	26f160ef          	jal	29d82 <_itoa_word>
   13318:	50010713          	addi	a4,sp,1280
   1331c:	ecaa                	sd	a0,88(sp)
   1331e:	7826                	ld	a6,104(sp)
   13320:	40a70c33          	sub	s8,a4,a0
   13324:	620d1e63          	bnez	s10,13960 <__printf_buffer+0xa32>
   13328:	418c8cb3          	sub	s9,s9,s8
   1332c:	fffccd93          	not	s11,s9
   13330:	77a2                	ld	a5,40(sp)
   13332:	43fddd93          	srai	s11,s11,0x3f
   13336:	01bcfdb3          	and	s11,s9,s11
   1333a:	000d869b          	sext.w	a3,s11
   1333e:	68079d63          	bnez	a5,139d8 <__printf_buffer+0xaaa>
   13342:	000c0d1b          	sext.w	s10,s8
   13346:	4c81                	li	s9,0
   13348:	4f0d4663          	blt	s10,a6,13834 <__printf_buffer+0x906>
   1334c:	5a0b8563          	beqz	s7,138f6 <__printf_buffer+0x9c8>
   13350:	67a6                	ld	a5,72(sp)
   13352:	5a078263          	beqz	a5,138f6 <__printf_buffer+0x9c8>
   13356:	060b17e3          	bnez	s6,13bc4 <__printf_buffer+0xc96>
   1335a:	77e2                	ld	a5,56(sp)
   1335c:	6741                	lui	a4,0x10
   1335e:	0711                	addi	a4,a4,4 # 10004 <__ehdr_start+0x4>
   13360:	00dd05bb          	addw	a1,s10,a3
   13364:	00f75733          	srl	a4,a4,a5
   13368:	40b9863b          	subw	a2,s3,a1
   1336c:	8b05                	andi	a4,a4,1
   1336e:	85b2                	mv	a1,a2
   13370:	4a071f63          	bnez	a4,1382e <__printf_buffer+0x900>
   13374:	77e2                	ld	a5,56(sp)
   13376:	4721                	li	a4,8
   13378:	00e79463          	bne	a5,a4,13380 <__printf_buffer+0x452>
   1337c:	6b26                	ld	s6,72(sp)
   1337e:	367d                	addiw	a2,a2,-1
   13380:	6786                	ld	a5,64(sp)
   13382:	00f96733          	or	a4,s2,a5
   13386:	77c2                	ld	a5,48(sp)
   13388:	8f5d                	or	a4,a4,a5
   1338a:	58071363          	bnez	a4,13910 <__printf_buffer+0x9e2>
   1338e:	67c6                	ld	a5,80(sp)
   13390:	02000713          	li	a4,32
   13394:	76e78e63          	beq	a5,a4,13b10 <__printf_buffer+0xbe2>
   13398:	9eb1                	addw	a3,a3,a2
   1339a:	000b8c63          	beqz	s7,133b2 <__printf_buffer+0x484>
   1339e:	67a6                	ld	a5,72(sp)
   133a0:	cb89                	beqz	a5,133b2 <__printf_buffer+0x484>
   133a2:	77e2                	ld	a5,56(sp)
   133a4:	6741                	lui	a4,0x10
   133a6:	0711                	addi	a4,a4,4 # 10004 <__ehdr_start+0x4>
   133a8:	00f75733          	srl	a4,a4,a5
   133ac:	8b05                	andi	a4,a4,1
   133ae:	44071963          	bnez	a4,13800 <__printf_buffer+0x8d2>
   133b2:	02d04663          	bgtz	a3,133de <__printf_buffer+0x4b0>
   133b6:	020b1c63          	bnez	s6,133ee <__printf_buffer+0x4c0>
   133ba:	040c8763          	beqz	s9,13408 <__printf_buffer+0x4da>
   133be:	7722                	ld	a4,40(sp)
   133c0:	4781                	li	a5,0
   133c2:	c709                	beqz	a4,133cc <__printf_buffer+0x49e>
   133c4:	77e2                	ld	a5,56(sp)
   133c6:	17d9                	addi	a5,a5,-10
   133c8:	0017b793          	seqz	a5,a5
   133cc:	7706                	ld	a4,96(sp)
   133ce:	6666                	ld	a2,88(sp)
   133d0:	50010693          	addi	a3,sp,1280
   133d4:	020c                	addi	a1,sp,256
   133d6:	8522                	mv	a0,s0
   133d8:	dfbfd0ef          	jal	111d2 <group_number>
   133dc:	bbbd                	j	1315a <__printf_buffer+0x22c>
   133de:	8636                	mv	a2,a3
   133e0:	03000593          	li	a1,48
   133e4:	8522                	mv	a0,s0
   133e6:	4c1160ef          	jal	2a0a6 <__printf_buffer_pad_1>
   133ea:	fc0b08e3          	beqz	s6,133ba <__printf_buffer+0x48c>
   133ee:	641c                	ld	a5,8(s0)
   133f0:	6818                	ld	a4,16(s0)
   133f2:	1ee782e3          	beq	a5,a4,13dd6 <__printf_buffer+0xea8>
   133f6:	00178713          	addi	a4,a5,1
   133fa:	e418                	sd	a4,8(s0)
   133fc:	03000713          	li	a4,48
   13400:	00e78023          	sb	a4,0(a5)
   13404:	fa0c9de3          	bnez	s9,133be <__printf_buffer+0x490>
   13408:	65e6                	ld	a1,88(sp)
   1340a:	8662                	mv	a2,s8
   1340c:	8522                	mv	a0,s0
   1340e:	77f160ef          	jal	2a38c <__printf_buffer_write>
   13412:	b3a1                	j	1315a <__printf_buffer+0x22c>
   13414:	4789                	li	a5,2
   13416:	86a6                	mv	a3,s1
   13418:	fc3e                	sd	a5,56(sp)
   1341a:	04a1                	addi	s1,s1,8
   1341c:	02090263          	beqz	s2,13440 <__printf_buffer+0x512>
   13420:	f802                	sd	zero,48(sp)
   13422:	e082                	sd	zero,64(sp)
   13424:	0006bb83          	ld	s7,0(a3)
   13428:	4901                	li	s2,0
   1342a:	ec0856e3          	bgez	a6,132f6 <__printf_buffer+0x3c8>
   1342e:	4c85                	li	s9,1
   13430:	4805                	li	a6,1
   13432:	bdc1                	j	13302 <__printf_buffer+0x3d4>
   13434:	47c1                	li	a5,16
   13436:	fc3e                	sd	a5,56(sp)
   13438:	86a6                	mv	a3,s1
   1343a:	04a1                	addi	s1,s1,8
   1343c:	fe0912e3          	bnez	s2,13420 <__printf_buffer+0x4f2>
   13440:	620d8363          	beqz	s11,13a66 <__printf_buffer+0xb38>
   13444:	0006cb83          	lbu	s7,0(a3)
   13448:	f802                	sd	zero,48(sp)
   1344a:	e082                	sd	zero,64(sp)
   1344c:	b55d                	j	132f2 <__printf_buffer+0x3c4>
   1344e:	47a1                	li	a5,8
   13450:	86a6                	mv	a3,s1
   13452:	fc3e                	sd	a5,56(sp)
   13454:	b7d9                	j	1341a <__printf_buffer+0x4ec>
   13456:	47a9                	li	a5,10
   13458:	86a6                	mv	a3,s1
   1345a:	fc3e                	sd	a5,56(sp)
   1345c:	bf7d                	j	1341a <__printf_buffer+0x4ec>
   1345e:	6e090163          	beqz	s2,13b40 <__printf_buffer+0xc12>
   13462:	0004bb83          	ld	s7,0(s1)
   13466:	04a1                	addi	s1,s1,8
   13468:	720bc963          	bltz	s7,13b9a <__printf_buffer+0xc6c>
   1346c:	47a9                	li	a5,10
   1346e:	fc3e                	sd	a5,56(sp)
   13470:	4901                	li	s2,0
   13472:	b541                	j	132f2 <__printf_buffer+0x3c4>
   13474:	641c                	ld	a5,8(s0)
   13476:	6818                	ld	a4,16(s0)
   13478:	16e786e3          	beq	a5,a4,13de4 <__printf_buffer+0xeb6>
   1347c:	00178713          	addi	a4,a5,1
   13480:	e418                	sd	a4,8(s0)
   13482:	02500713          	li	a4,37
   13486:	00e78023          	sb	a4,0(a5)
   1348a:	b9c1                	j	1315a <__printf_buffer+0x22c>
   1348c:	67ee                	ld	a5,216(sp)
   1348e:	4625                	li	a2,9
   13490:	00178693          	addi	a3,a5,1
   13494:	e236                	sd	a3,256(sp)
   13496:	0017ca03          	lbu	s4,1(a5)
   1349a:	edb6                	sd	a3,216(sp)
   1349c:	fd0a069b          	addiw	a3,s4,-48
   134a0:	000a079b          	sext.w	a5,s4
   134a4:	76d67f63          	bgeu	a2,a3,13c22 <__printf_buffer+0xcf4>
   134a8:	0004a983          	lw	s3,0(s1)
   134ac:	04a1                	addi	s1,s1,8
   134ae:	0009d863          	bgez	s3,134be <__printf_buffer+0x590>
   134b2:	02000713          	li	a4,32
   134b6:	413009bb          	negw	s3,s3
   134ba:	e8ba                	sd	a4,80(sp)
   134bc:	4b05                	li	s6,1
   134be:	fe0a069b          	addiw	a3,s4,-32
   134c2:	0ff6f693          	zext.b	a3,a3
   134c6:	05a00613          	li	a2,90
   134ca:	b2d66fe3          	bltu	a2,a3,13008 <__printf_buffer+0xda>
   134ce:	fe07869b          	addiw	a3,a5,-32
   134d2:	96e2                	add	a3,a3,s8
   134d4:	0006c683          	lbu	a3,0(a3)
   134d8:	00056797          	auipc	a5,0x56
   134dc:	fe078793          	addi	a5,a5,-32 # 694b8 <step4_jumps.0>
   134e0:	068e                	slli	a3,a3,0x3
   134e2:	96be                	add	a3,a3,a5
   134e4:	1f06b683          	ld	a3,496(a3)
   134e8:	8682                	jr	a3
   134ea:	66ee                	ld	a3,216(sp)
   134ec:	05a00613          	li	a2,90
   134f0:	0016ca03          	lbu	s4,1(a3)
   134f4:	0685                	addi	a3,a3,1
   134f6:	edb6                	sd	a3,216(sp)
   134f8:	fe0a069b          	addiw	a3,s4,-32
   134fc:	0ff6f593          	zext.b	a1,a3
   13500:	b0b664e3          	bltu	a2,a1,13008 <__printf_buffer+0xda>
   13504:	2681                	sext.w	a3,a3
   13506:	96e2                	add	a3,a3,s8
   13508:	0006c683          	lbu	a3,0(a3)
   1350c:	4785                	li	a5,1
   1350e:	f43e                	sd	a5,40(sp)
   13510:	068e                	slli	a3,a3,0x3
   13512:	00056797          	auipc	a5,0x56
   13516:	fa678793          	addi	a5,a5,-90 # 694b8 <step4_jumps.0>
   1351a:	96be                	add	a3,a3,a5
   1351c:	7ef4                	ld	a3,248(a3)
   1351e:	8682                	jr	a3
   13520:	774a                	ld	a4,176(sp)
   13522:	57fd                	li	a5,-1
   13524:	74f70b63          	beq	a4,a5,13c7a <__printf_buffer+0xd4c>
   13528:	676e                	ld	a4,216(sp)
   1352a:	05a00693          	li	a3,90
   1352e:	00174a03          	lbu	s4,1(a4)
   13532:	0705                	addi	a4,a4,1
   13534:	edba                	sd	a4,216(sp)
   13536:	fe0a071b          	addiw	a4,s4,-32
   1353a:	0ff77613          	zext.b	a2,a4
   1353e:	acc6e5e3          	bltu	a3,a2,13008 <__printf_buffer+0xda>
   13542:	2701                	sext.w	a4,a4
   13544:	9762                	add	a4,a4,s8
   13546:	00074683          	lbu	a3,0(a4)
   1354a:	00056797          	auipc	a5,0x56
   1354e:	f6e78793          	addi	a5,a5,-146 # 694b8 <step4_jumps.0>
   13552:	4d05                	li	s10,1
   13554:	068e                	slli	a3,a3,0x3
   13556:	96be                	add	a3,a3,a5
   13558:	7ef4                	ld	a3,248(a3)
   1355a:	8682                	jr	a3
   1355c:	000b1563          	bnez	s6,13566 <__printf_buffer+0x638>
   13560:	03000793          	li	a5,48
   13564:	e8be                	sd	a5,80(sp)
   13566:	66ee                	ld	a3,216(sp)
   13568:	05a00613          	li	a2,90
   1356c:	0016ca03          	lbu	s4,1(a3)
   13570:	0685                	addi	a3,a3,1
   13572:	edb6                	sd	a3,216(sp)
   13574:	fe0a069b          	addiw	a3,s4,-32
   13578:	0ff6f593          	zext.b	a1,a3
   1357c:	a8b666e3          	bltu	a2,a1,13008 <__printf_buffer+0xda>
   13580:	2681                	sext.w	a3,a3
   13582:	96e2                	add	a3,a3,s8
   13584:	0006c683          	lbu	a3,0(a3)
   13588:	00056797          	auipc	a5,0x56
   1358c:	f3078793          	addi	a5,a5,-208 # 694b8 <step4_jumps.0>
   13590:	068e                	slli	a3,a3,0x3
   13592:	96be                	add	a3,a3,a5
   13594:	7ef4                	ld	a3,248(a3)
   13596:	8682                	jr	a3
   13598:	66ee                	ld	a3,216(sp)
   1359a:	05a00613          	li	a2,90
   1359e:	0016ca03          	lbu	s4,1(a3)
   135a2:	0685                	addi	a3,a3,1
   135a4:	edb6                	sd	a3,216(sp)
   135a6:	fe0a069b          	addiw	a3,s4,-32
   135aa:	0ff6f593          	zext.b	a1,a3
   135ae:	a4b66de3          	bltu	a2,a1,13008 <__printf_buffer+0xda>
   135b2:	2681                	sext.w	a3,a3
   135b4:	96e2                	add	a3,a3,s8
   135b6:	0006c683          	lbu	a3,0(a3)
   135ba:	4785                	li	a5,1
   135bc:	e4be                	sd	a5,72(sp)
   135be:	068e                	slli	a3,a3,0x3
   135c0:	00056797          	auipc	a5,0x56
   135c4:	ef878793          	addi	a5,a5,-264 # 694b8 <step4_jumps.0>
   135c8:	96be                	add	a3,a3,a5
   135ca:	7ef4                	ld	a3,248(a3)
   135cc:	8682                	jr	a3
   135ce:	66ee                	ld	a3,216(sp)
   135d0:	05a00613          	li	a2,90
   135d4:	0016ca03          	lbu	s4,1(a3)
   135d8:	0685                	addi	a3,a3,1
   135da:	edb6                	sd	a3,216(sp)
   135dc:	fe0a069b          	addiw	a3,s4,-32
   135e0:	0ff6f593          	zext.b	a1,a3
   135e4:	a2b662e3          	bltu	a2,a1,13008 <__printf_buffer+0xda>
   135e8:	2681                	sext.w	a3,a3
   135ea:	96e2                	add	a3,a3,s8
   135ec:	0006c683          	lbu	a3,0(a3)
   135f0:	02000793          	li	a5,32
   135f4:	e8be                	sd	a5,80(sp)
   135f6:	068e                	slli	a3,a3,0x3
   135f8:	00056797          	auipc	a5,0x56
   135fc:	ec078793          	addi	a5,a5,-320 # 694b8 <step4_jumps.0>
   13600:	96be                	add	a3,a3,a5
   13602:	7ef4                	ld	a3,248(a3)
   13604:	4b05                	li	s6,1
   13606:	8682                	jr	a3
   13608:	66ee                	ld	a3,216(sp)
   1360a:	05a00613          	li	a2,90
   1360e:	0016ca03          	lbu	s4,1(a3)
   13612:	0685                	addi	a3,a3,1
   13614:	edb6                	sd	a3,216(sp)
   13616:	fe0a069b          	addiw	a3,s4,-32
   1361a:	0ff6f593          	zext.b	a1,a3
   1361e:	9eb665e3          	bltu	a2,a1,13008 <__printf_buffer+0xda>
   13622:	2681                	sext.w	a3,a3
   13624:	96e2                	add	a3,a3,s8
   13626:	0006c683          	lbu	a3,0(a3)
   1362a:	4785                	li	a5,1
   1362c:	f83e                	sd	a5,48(sp)
   1362e:	068e                	slli	a3,a3,0x3
   13630:	00056797          	auipc	a5,0x56
   13634:	e8878793          	addi	a5,a5,-376 # 694b8 <step4_jumps.0>
   13638:	96be                	add	a3,a3,a5
   1363a:	7ef4                	ld	a3,248(a3)
   1363c:	8682                	jr	a3
   1363e:	66ee                	ld	a3,216(sp)
   13640:	05a00613          	li	a2,90
   13644:	0016ca03          	lbu	s4,1(a3)
   13648:	0685                	addi	a3,a3,1
   1364a:	edb6                	sd	a3,216(sp)
   1364c:	fe0a069b          	addiw	a3,s4,-32
   13650:	0ff6f593          	zext.b	a1,a3
   13654:	9ab66ae3          	bltu	a2,a1,13008 <__printf_buffer+0xda>
   13658:	2681                	sext.w	a3,a3
   1365a:	96e2                	add	a3,a3,s8
   1365c:	0006c683          	lbu	a3,0(a3)
   13660:	4785                	li	a5,1
   13662:	e0be                	sd	a5,64(sp)
   13664:	068e                	slli	a3,a3,0x3
   13666:	00056797          	auipc	a5,0x56
   1366a:	e5278793          	addi	a5,a5,-430 # 694b8 <step4_jumps.0>
   1366e:	96be                	add	a3,a3,a5
   13670:	7ef4                	ld	a3,248(a3)
   13672:	8682                	jr	a3
   13674:	66ee                	ld	a3,216(sp)
   13676:	05a00613          	li	a2,90
   1367a:	0016ca03          	lbu	s4,1(a3)
   1367e:	0685                	addi	a3,a3,1
   13680:	edb6                	sd	a3,216(sp)
   13682:	fe0a069b          	addiw	a3,s4,-32
   13686:	0ff6f593          	zext.b	a1,a3
   1368a:	96b66fe3          	bltu	a2,a1,13008 <__printf_buffer+0xda>
   1368e:	bc31                	j	130aa <__printf_buffer+0x17c>
   13690:	66ee                	ld	a3,216(sp)
   13692:	05a00613          	li	a2,90
   13696:	0016ca03          	lbu	s4,1(a3)
   1369a:	0685                	addi	a3,a3,1
   1369c:	edb6                	sd	a3,216(sp)
   1369e:	fe0a069b          	addiw	a3,s4,-32
   136a2:	0ff6f593          	zext.b	a1,a3
   136a6:	96b661e3          	bltu	a2,a1,13008 <__printf_buffer+0xda>
   136aa:	2681                	sext.w	a3,a3
   136ac:	96e2                	add	a3,a3,s8
   136ae:	0006c683          	lbu	a3,0(a3)
   136b2:	00056797          	auipc	a5,0x56
   136b6:	e0678793          	addi	a5,a5,-506 # 694b8 <step4_jumps.0>
   136ba:	4905                	li	s2,1
   136bc:	068e                	slli	a3,a3,0x3
   136be:	96be                	add	a3,a3,a5
   136c0:	4d86b683          	ld	a3,1240(a3)
   136c4:	4b85                	li	s7,1
   136c6:	8682                	jr	a3
   136c8:	66ee                	ld	a3,216(sp)
   136ca:	05a00613          	li	a2,90
   136ce:	0016ca03          	lbu	s4,1(a3)
   136d2:	0685                	addi	a3,a3,1
   136d4:	edb6                	sd	a3,216(sp)
   136d6:	fe0a069b          	addiw	a3,s4,-32
   136da:	0ff6f593          	zext.b	a1,a3
   136de:	92b665e3          	bltu	a2,a1,13008 <__printf_buffer+0xda>
   136e2:	2681                	sext.w	a3,a3
   136e4:	96e2                	add	a3,a3,s8
   136e6:	0006c683          	lbu	a3,0(a3)
   136ea:	00056797          	auipc	a5,0x56
   136ee:	dce78793          	addi	a5,a5,-562 # 694b8 <step4_jumps.0>
   136f2:	4905                	li	s2,1
   136f4:	068e                	slli	a3,a3,0x3
   136f6:	96be                	add	a3,a3,a5
   136f8:	5d06b683          	ld	a3,1488(a3)
   136fc:	8682                	jr	a3
   136fe:	66ee                	ld	a3,216(sp)
   13700:	05a00613          	li	a2,90
   13704:	0016ca03          	lbu	s4,1(a3)
   13708:	0685                	addi	a3,a3,1
   1370a:	edb6                	sd	a3,216(sp)
   1370c:	fe0a069b          	addiw	a3,s4,-32
   13710:	0ff6f593          	zext.b	a1,a3
   13714:	8eb66ae3          	bltu	a2,a1,13008 <__printf_buffer+0xda>
   13718:	2681                	sext.w	a3,a3
   1371a:	96e2                	add	a3,a3,s8
   1371c:	0006c683          	lbu	a3,0(a3)
   13720:	00056797          	auipc	a5,0x56
   13724:	d9878793          	addi	a5,a5,-616 # 694b8 <step4_jumps.0>
   13728:	4d85                	li	s11,1
   1372a:	068e                	slli	a3,a3,0x3
   1372c:	96be                	add	a3,a3,a5
   1372e:	4d86b683          	ld	a3,1240(a3)
   13732:	4c81                	li	s9,0
   13734:	8682                	jr	a3
   13736:	66ee                	ld	a3,216(sp)
   13738:	05a00613          	li	a2,90
   1373c:	0016ca03          	lbu	s4,1(a3)
   13740:	0685                	addi	a3,a3,1
   13742:	edb6                	sd	a3,216(sp)
   13744:	fe0a069b          	addiw	a3,s4,-32
   13748:	0ff6f593          	zext.b	a1,a3
   1374c:	8ab66ee3          	bltu	a2,a1,13008 <__printf_buffer+0xda>
   13750:	2681                	sext.w	a3,a3
   13752:	96e2                	add	a3,a3,s8
   13754:	0006c683          	lbu	a3,0(a3)
   13758:	00056797          	auipc	a5,0x56
   1375c:	d6078793          	addi	a5,a5,-672 # 694b8 <step4_jumps.0>
   13760:	4c85                	li	s9,1
   13762:	068e                	slli	a3,a3,0x3
   13764:	96be                	add	a3,a3,a5
   13766:	3e06b683          	ld	a3,992(a3)
   1376a:	8682                	jr	a3
   1376c:	66ee                	ld	a3,216(sp)
   1376e:	02a00613          	li	a2,42
   13772:	0016ca03          	lbu	s4,1(a3)
   13776:	00168593          	addi	a1,a3,1
   1377a:	edae                	sd	a1,216(sp)
   1377c:	48ca0063          	beq	s4,a2,13bfc <__printf_buffer+0xcce>
   13780:	fd0a069b          	addiw	a3,s4,-48
   13784:	4625                	li	a2,9
   13786:	4801                	li	a6,0
   13788:	62d67063          	bgeu	a2,a3,13da8 <__printf_buffer+0xe7a>
   1378c:	fe0a069b          	addiw	a3,s4,-32
   13790:	0ff6f593          	zext.b	a1,a3
   13794:	05a00613          	li	a2,90
   13798:	86b668e3          	bltu	a2,a1,13008 <__printf_buffer+0xda>
   1379c:	2681                	sext.w	a3,a3
   1379e:	96e2                	add	a3,a3,s8
   137a0:	0006c683          	lbu	a3,0(a3)
   137a4:	00056797          	auipc	a5,0x56
   137a8:	d1478793          	addi	a5,a5,-748 # 694b8 <step4_jumps.0>
   137ac:	068e                	slli	a3,a3,0x3
   137ae:	96be                	add	a3,a3,a5
   137b0:	2e86b683          	ld	a3,744(a3)
   137b4:	8682                	jr	a3
   137b6:	09a8                	addi	a0,sp,216
   137b8:	fc42                	sd	a6,56(sp)
   137ba:	86ffd0ef          	jal	11028 <read_int>
   137be:	57fd                	li	a5,-1
   137c0:	7862                	ld	a6,56(sp)
   137c2:	89aa                	mv	s3,a0
   137c4:	68f50d63          	beq	a0,a5,13e5e <__printf_buffer+0xf30>
   137c8:	67ee                	ld	a5,216(sp)
   137ca:	02400693          	li	a3,36
   137ce:	0007ca03          	lbu	s4,0(a5)
   137d2:	26da0063          	beq	s4,a3,13a32 <__printf_buffer+0xb04>
   137d6:	fe0a069b          	addiw	a3,s4,-32
   137da:	0ff6f593          	zext.b	a1,a3
   137de:	05a00613          	li	a2,90
   137e2:	82b663e3          	bltu	a2,a1,13008 <__printf_buffer+0xda>
   137e6:	2681                	sext.w	a3,a3
   137e8:	96e2                	add	a3,a3,s8
   137ea:	0006c683          	lbu	a3,0(a3)
   137ee:	00056797          	auipc	a5,0x56
   137f2:	cca78793          	addi	a5,a5,-822 # 694b8 <step4_jumps.0>
   137f6:	068e                	slli	a3,a3,0x3
   137f8:	96be                	add	a3,a3,a5
   137fa:	1f06b683          	ld	a3,496(a3)
   137fe:	8682                	jr	a3
   13800:	6418                	ld	a4,8(s0)
   13802:	6810                	ld	a2,16(s0)
   13804:	72c70663          	beq	a4,a2,13f30 <__printf_buffer+0x1002>
   13808:	00170613          	addi	a2,a4,1
   1380c:	e410                	sd	a2,8(s0)
   1380e:	03000613          	li	a2,48
   13812:	00c70023          	sb	a2,0(a4)
   13816:	6418                	ld	a4,8(s0)
   13818:	6810                	ld	a2,16(s0)
   1381a:	6ec70963          	beq	a4,a2,13f0c <__printf_buffer+0xfde>
   1381e:	00170613          	addi	a2,a4,1
   13822:	e410                	sd	a2,8(s0)
   13824:	01470023          	sb	s4,0(a4)
   13828:	b8d057e3          	blez	a3,133b6 <__printf_buffer+0x488>
   1382c:	be4d                	j	133de <__printf_buffer+0x4b0>
   1382e:	ffe5861b          	addiw	a2,a1,-2
   13832:	b689                	j	13374 <__printf_buffer+0x446>
   13834:	020b1563          	bnez	s6,1385e <__printf_buffer+0x930>
   13838:	00dd073b          	addw	a4,s10,a3
   1383c:	40e9863b          	subw	a2,s3,a4
   13840:	b40b80e3          	beqz	s7,13380 <__printf_buffer+0x452>
   13844:	67a6                	ld	a5,72(sp)
   13846:	b2078de3          	beqz	a5,13380 <__printf_buffer+0x452>
   1384a:	77e2                	ld	a5,56(sp)
   1384c:	65c1                	lui	a1,0x10
   1384e:	0591                	addi	a1,a1,4 # 10004 <__ehdr_start+0x4>
   13850:	00f5d5b3          	srl	a1,a1,a5
   13854:	8985                	andi	a1,a1,1
   13856:	b20585e3          	beqz	a1,13380 <__printf_buffer+0x452>
   1385a:	3679                	addiw	a2,a2,-2
   1385c:	b615                	j	13380 <__printf_buffer+0x452>
   1385e:	4b01                	li	s6,0
   13860:	22091163          	bnez	s2,13a82 <__printf_buffer+0xb54>
   13864:	77c2                	ld	a5,48(sp)
   13866:	26079e63          	bnez	a5,13ae2 <__printf_buffer+0xbb4>
   1386a:	6786                	ld	a5,64(sp)
   1386c:	e7b1                	bnez	a5,138b8 <__printf_buffer+0x98a>
   1386e:	000b8c63          	beqz	s7,13886 <__printf_buffer+0x958>
   13872:	67a6                	ld	a5,72(sp)
   13874:	cb89                	beqz	a5,13886 <__printf_buffer+0x958>
   13876:	77e2                	ld	a5,56(sp)
   13878:	6741                	lui	a4,0x10
   1387a:	0711                	addi	a4,a4,4 # 10004 <__ehdr_start+0x4>
   1387c:	00f75733          	srl	a4,a4,a5
   13880:	8b05                	andi	a4,a4,1
   13882:	34071763          	bnez	a4,13bd0 <__printf_buffer+0xca2>
   13886:	018d8dbb          	addw	s11,s11,s8
   1388a:	140b0f63          	beqz	s6,139e8 <__printf_buffer+0xaba>
   1388e:	00d05863          	blez	a3,1389e <__printf_buffer+0x970>
   13892:	8636                	mv	a2,a3
   13894:	03000593          	li	a1,48
   13898:	8522                	mv	a0,s0
   1389a:	00d160ef          	jal	2a0a6 <__printf_buffer_pad_1>
   1389e:	641c                	ld	a5,8(s0)
   138a0:	6818                	ld	a4,16(s0)
   138a2:	54e78863          	beq	a5,a4,13df2 <__printf_buffer+0xec4>
   138a6:	00178713          	addi	a4,a5,1
   138aa:	e418                	sd	a4,8(s0)
   138ac:	03000713          	li	a4,48
   138b0:	00e78023          	sb	a4,0(a5)
   138b4:	39fd                	addiw	s3,s3,-1
   138b6:	a289                	j	139f8 <__printf_buffer+0xaca>
   138b8:	6418                	ld	a4,8(s0)
   138ba:	6810                	ld	a2,16(s0)
   138bc:	5ac70a63          	beq	a4,a2,13e70 <__printf_buffer+0xf42>
   138c0:	00170613          	addi	a2,a4,1
   138c4:	e410                	sd	a2,8(s0)
   138c6:	02000613          	li	a2,32
   138ca:	00c70023          	sb	a2,0(a4)
   138ce:	39fd                	addiw	s3,s3,-1
   138d0:	bf79                	j	1386e <__printf_buffer+0x940>
   138d2:	67a6                	ld	a5,72(sp)
   138d4:	40079463          	bnez	a5,13cdc <__printf_buffer+0xdae>
   138d8:	5c0d1a63          	bnez	s10,13eac <__printf_buffer+0xf7e>
   138dc:	77a2                	ld	a5,40(sp)
   138de:	5a079b63          	bnez	a5,13e94 <__printf_buffer+0xf66>
   138e2:	50010793          	addi	a5,sp,1280
   138e6:	4c01                	li	s8,0
   138e8:	ecbe                	sd	a5,88(sp)
   138ea:	02000793          	li	a5,32
   138ee:	4681                	li	a3,0
   138f0:	4d81                	li	s11,0
   138f2:	4c81                	li	s9,0
   138f4:	e8be                	sd	a5,80(sp)
   138f6:	f60b14e3          	bnez	s6,1385e <__printf_buffer+0x930>
   138fa:	6786                	ld	a5,64(sp)
   138fc:	00dd063b          	addw	a2,s10,a3
   13900:	40c9863b          	subw	a2,s3,a2
   13904:	00f96733          	or	a4,s2,a5
   13908:	77c2                	ld	a5,48(sp)
   1390a:	8f5d                	or	a4,a4,a5
   1390c:	a80701e3          	beqz	a4,1338e <__printf_buffer+0x460>
   13910:	67c6                	ld	a5,80(sp)
   13912:	02000593          	li	a1,32
   13916:	367d                	addiw	a2,a2,-1
   13918:	1eb78263          	beq	a5,a1,13afc <__printf_buffer+0xbce>
   1391c:	9eb1                	addw	a3,a3,a2
   1391e:	16091f63          	bnez	s2,13a9c <__printf_buffer+0xb6e>
   13922:	77c2                	ld	a5,48(sp)
   13924:	1e078f63          	beqz	a5,13b22 <__printf_buffer+0xbf4>
   13928:	6418                	ld	a4,8(s0)
   1392a:	6810                	ld	a2,16(s0)
   1392c:	52c70063          	beq	a4,a2,13e4c <__printf_buffer+0xf1e>
   13930:	00170613          	addi	a2,a4,1
   13934:	e410                	sd	a2,8(s0)
   13936:	02b00613          	li	a2,43
   1393a:	00c70023          	sb	a2,0(a4)
   1393e:	bcb1                	j	1339a <__printf_buffer+0x46c>
   13940:	100b9e63          	bnez	s7,13a5c <__printf_buffer+0xb2e>
   13944:	77e2                	ld	a5,56(sp)
   13946:	46a1                	li	a3,8
   13948:	f8d785e3          	beq	a5,a3,138d2 <__printf_buffer+0x9a4>
   1394c:	02000793          	li	a5,32
   13950:	e8be                	sd	a5,80(sp)
   13952:	50010793          	addi	a5,sp,1280
   13956:	ecbe                	sd	a5,88(sp)
   13958:	4c81                	li	s9,0
   1395a:	4c01                	li	s8,0
   1395c:	9c0d06e3          	beqz	s10,13328 <__printf_buffer+0x3fa>
   13960:	7d8a                	ld	s11,160(sp)
   13962:	4585                	li	a1,1
   13964:	0208                	addi	a0,sp,256
   13966:	004d86b3          	add	a3,s11,tp
   1396a:	6290                	ld	a2,0(a3)
   1396c:	000c069b          	sext.w	a3,s8
   13970:	ed42                	sd	a6,152(sp)
   13972:	f4b6                	sd	a3,104(sp)
   13974:	5bc160ef          	jal	29f30 <__grouping_iterator_init>
   13978:	77a2                	ld	a5,40(sp)
   1397a:	76a6                	ld	a3,104(sp)
   1397c:	686a                	ld	a6,152(sp)
   1397e:	12078b63          	beqz	a5,13ab4 <__printf_buffer+0xb86>
   13982:	77e2                	ld	a5,56(sp)
   13984:	4629                	li	a2,10
   13986:	418c8cb3          	sub	s9,s9,s8
   1398a:	22c79b63          	bne	a5,a2,13bc0 <__printf_buffer+0xc92>
   1398e:	9d92                	add	s11,s11,tp
   13990:	000db503          	ld	a0,0(s11)
   13994:	65e6                	ld	a1,88(sp)
   13996:	50010613          	addi	a2,sp,1280
   1399a:	f4c2                	sd	a6,104(sp)
   1399c:	fffccd93          	not	s11,s9
   139a0:	3f2190ef          	jal	2cd92 <__translated_number_width>
   139a4:	43fddd93          	srai	s11,s11,0x3f
   139a8:	7826                	ld	a6,104(sp)
   139aa:	01bcfdb3          	and	s11,s9,s11
   139ae:	f52a                	sd	a0,168(sp)
   139b0:	000d869b          	sext.w	a3,s11
   139b4:	580d0c63          	beqz	s10,13f4c <__printf_buffer+0x101e>
   139b8:	7506                	ld	a0,96(sp)
   139ba:	ed36                	sd	a3,152(sp)
   139bc:	f4c2                	sd	a6,104(sp)
   139be:	2d7050ef          	jal	19494 <strlen>
   139c2:	11412703          	lw	a4,276(sp)
   139c6:	77aa                	ld	a5,168(sp)
   139c8:	7826                	ld	a6,104(sp)
   139ca:	02a7073b          	mulw	a4,a4,a0
   139ce:	66ea                	ld	a3,152(sp)
   139d0:	4c85                	li	s9,1
   139d2:	00f70d3b          	addw	s10,a4,a5
   139d6:	ba8d                	j	13348 <__printf_buffer+0x41a>
   139d8:	77e2                	ld	a5,56(sp)
   139da:	4629                	li	a2,10
   139dc:	1cc78663          	beq	a5,a2,13ba8 <__printf_buffer+0xc7a>
   139e0:	000c0d1b          	sext.w	s10,s8
   139e4:	4c81                	li	s9,0
   139e6:	b28d                	j	13348 <__printf_buffer+0x41a>
   139e8:	00d05863          	blez	a3,139f8 <__printf_buffer+0xaca>
   139ec:	8636                	mv	a2,a3
   139ee:	03000593          	li	a1,48
   139f2:	8522                	mv	a0,s0
   139f4:	6b2160ef          	jal	2a0a6 <__printf_buffer_pad_1>
   139f8:	41b989bb          	subw	s3,s3,s11
   139fc:	060c8c63          	beqz	s9,13a74 <__printf_buffer+0xb46>
   13a00:	7722                	ld	a4,40(sp)
   13a02:	4781                	li	a5,0
   13a04:	c709                	beqz	a4,13a0e <__printf_buffer+0xae0>
   13a06:	77e2                	ld	a5,56(sp)
   13a08:	17d9                	addi	a5,a5,-10
   13a0a:	0017b793          	seqz	a5,a5
   13a0e:	7706                	ld	a4,96(sp)
   13a10:	6666                	ld	a2,88(sp)
   13a12:	50010693          	addi	a3,sp,1280
   13a16:	020c                	addi	a1,sp,256
   13a18:	8522                	mv	a0,s0
   13a1a:	fb8fd0ef          	jal	111d2 <group_number>
   13a1e:	831ff06f          	j	1324e <__printf_buffer+0x320>
   13a22:	5f9180ef          	jal	2c81a <__printf_fphex_l_buffer>
   13a26:	f34ff06f          	j	1315a <__printf_buffer+0x22c>
   13a2a:	57fd                	li	a5,-1
   13a2c:	fd02                	sd	zero,184(sp)
   13a2e:	4a81                	li	s5,0
   13a30:	f93e                	sd	a5,176(sp)
   13a32:	77e6                	ld	a5,120(sp)
   13a34:	682a                	ld	a6,136(sp)
   13a36:	766a                	ld	a2,184(sp)
   13a38:	ec3e                	sd	a5,24(sp)
   13a3a:	7786                	ld	a5,96(sp)
   13a3c:	658a                	ld	a1,128(sp)
   13a3e:	11810893          	addi	a7,sp,280
   13a42:	e83e                	sd	a5,16(sp)
   13a44:	77ca                	ld	a5,176(sp)
   13a46:	1198                	addi	a4,sp,224
   13a48:	86a6                	mv	a3,s1
   13a4a:	e43e                	sd	a5,8(sp)
   13a4c:	77c6                	ld	a5,112(sp)
   13a4e:	8522                	mv	a0,s0
   13a50:	e03e                	sd	a5,0(sp)
   13a52:	87d6                	mv	a5,s5
   13a54:	84bfd0ef          	jal	1129e <printf_positional>
   13a58:	dc0ff06f          	j	13018 <__printf_buffer+0xea>
   13a5c:	02000793          	li	a5,32
   13a60:	4c81                	li	s9,0
   13a62:	e8be                	sd	a5,80(sp)
   13a64:	b879                	j	13302 <__printf_buffer+0x3d4>
   13a66:	0e0c9963          	bnez	s9,13b58 <__printf_buffer+0xc2a>
   13a6a:	0006eb83          	lwu	s7,0(a3)
   13a6e:	f802                	sd	zero,48(sp)
   13a70:	e082                	sd	zero,64(sp)
   13a72:	b041                	j	132f2 <__printf_buffer+0x3c4>
   13a74:	65e6                	ld	a1,88(sp)
   13a76:	8662                	mv	a2,s8
   13a78:	8522                	mv	a0,s0
   13a7a:	113160ef          	jal	2a38c <__printf_buffer_write>
   13a7e:	fd0ff06f          	j	1324e <__printf_buffer+0x320>
   13a82:	6418                	ld	a4,8(s0)
   13a84:	6810                	ld	a2,16(s0)
   13a86:	38c70663          	beq	a4,a2,13e12 <__printf_buffer+0xee4>
   13a8a:	00170613          	addi	a2,a4,1
   13a8e:	e410                	sd	a2,8(s0)
   13a90:	02d00613          	li	a2,45
   13a94:	00c70023          	sb	a2,0(a4)
   13a98:	39fd                	addiw	s3,s3,-1
   13a9a:	bbd1                	j	1386e <__printf_buffer+0x940>
   13a9c:	6418                	ld	a4,8(s0)
   13a9e:	6810                	ld	a2,16(s0)
   13aa0:	36c70063          	beq	a4,a2,13e00 <__printf_buffer+0xed2>
   13aa4:	00170613          	addi	a2,a4,1
   13aa8:	e410                	sd	a2,8(s0)
   13aaa:	02d00613          	li	a2,45
   13aae:	00c70023          	sb	a2,0(a4)
   13ab2:	b0e5                	j	1339a <__printf_buffer+0x46c>
   13ab4:	418c8db3          	sub	s11,s9,s8
   13ab8:	fffdc713          	not	a4,s11
   13abc:	977d                	srai	a4,a4,0x3f
   13abe:	00edfdb3          	and	s11,s11,a4
   13ac2:	f536                	sd	a3,168(sp)
   13ac4:	000d869b          	sext.w	a3,s11
   13ac8:	bdc5                	j	139b8 <__printf_buffer+0xa8a>
   13aca:	fa090663          	beqz	s2,13276 <__printf_buffer+0x348>
   13ace:	001b7713          	andi	a4,s6,1
   13ad2:	86ce                	mv	a3,s3
   13ad4:	8642                	mv	a2,a6
   13ad6:	85e2                	mv	a1,s8
   13ad8:	8522                	mv	a0,s0
   13ada:	db4fd0ef          	jal	1108e <outstring_converted_wide_string>
   13ade:	e7cff06f          	j	1315a <__printf_buffer+0x22c>
   13ae2:	6418                	ld	a4,8(s0)
   13ae4:	6810                	ld	a2,16(s0)
   13ae6:	34c70a63          	beq	a4,a2,13e3a <__printf_buffer+0xf0c>
   13aea:	00170613          	addi	a2,a4,1
   13aee:	e410                	sd	a2,8(s0)
   13af0:	02b00613          	li	a2,43
   13af4:	00c70023          	sb	a2,0(a4)
   13af8:	39fd                	addiw	s3,s3,-1
   13afa:	bb95                	j	1386e <__printf_buffer+0x940>
   13afc:	e2c051e3          	blez	a2,1391e <__printf_buffer+0x9f0>
   13b00:	02000593          	li	a1,32
   13b04:	8522                	mv	a0,s0
   13b06:	e8b6                	sd	a3,80(sp)
   13b08:	59e160ef          	jal	2a0a6 <__printf_buffer_pad_1>
   13b0c:	66c6                	ld	a3,80(sp)
   13b0e:	bd01                	j	1391e <__printf_buffer+0x9f0>
   13b10:	88c055e3          	blez	a2,1339a <__printf_buffer+0x46c>
   13b14:	02000593          	li	a1,32
   13b18:	8522                	mv	a0,s0
   13b1a:	f836                	sd	a3,48(sp)
   13b1c:	58a160ef          	jal	2a0a6 <__printf_buffer_pad_1>
   13b20:	76c2                	ld	a3,48(sp)
   13b22:	6786                	ld	a5,64(sp)
   13b24:	86078be3          	beqz	a5,1339a <__printf_buffer+0x46c>
   13b28:	6418                	ld	a4,8(s0)
   13b2a:	6810                	ld	a2,16(s0)
   13b2c:	34c70b63          	beq	a4,a2,13e82 <__printf_buffer+0xf54>
   13b30:	00170613          	addi	a2,a4,1
   13b34:	e410                	sd	a2,8(s0)
   13b36:	02000613          	li	a2,32
   13b3a:	00c70023          	sb	a2,0(a4)
   13b3e:	b8b1                	j	1339a <__printf_buffer+0x46c>
   13b40:	0004ab83          	lw	s7,0(s1)
   13b44:	04a1                	addi	s1,s1,8
   13b46:	160d9363          	bnez	s11,13cac <__printf_buffer+0xd7e>
   13b4a:	900c8fe3          	beqz	s9,13468 <__printf_buffer+0x53a>
   13b4e:	010b9b9b          	slliw	s7,s7,0x10
   13b52:	410bdb9b          	sraiw	s7,s7,0x10
   13b56:	ba09                	j	13468 <__printf_buffer+0x53a>
   13b58:	0006db83          	lhu	s7,0(a3)
   13b5c:	f802                	sd	zero,48(sp)
   13b5e:	e082                	sd	zero,64(sp)
   13b60:	f92ff06f          	j	132f2 <__printf_buffer+0x3c4>
   13b64:	7546                	ld	a0,112(sp)
   13b66:	3e800613          	li	a2,1000
   13b6a:	0a2c                	addi	a1,sp,280
   13b6c:	6c6050ef          	jal	19232 <__strerror_r>
   13b70:	7862                	ld	a6,56(sp)
   13b72:	8c2a                	mv	s8,a0
   13b74:	efeff06f          	j	13272 <__printf_buffer+0x344>
   13b78:	120d9663          	bnez	s11,13ca4 <__printf_buffer+0xd76>
   13b7c:	2a0c9463          	bnez	s9,13e24 <__printf_buffer+0xef6>
   13b80:	00a9a023          	sw	a0,0(s3)
   13b84:	dd6ff06f          	j	1315a <__printf_buffer+0x22c>
   13b88:	865e                	mv	a2,s7
   13b8a:	85e2                	mv	a1,s8
   13b8c:	8522                	mv	a0,s0
   13b8e:	7fe160ef          	jal	2a38c <__printf_buffer_write>
   13b92:	e40c9e63          	bnez	s9,131ee <__printf_buffer+0x2c0>
   13b96:	dc4ff06f          	j	1315a <__printf_buffer+0x22c>
   13b9a:	47a9                	li	a5,10
   13b9c:	41700bb3          	neg	s7,s7
   13ba0:	fc3e                	sd	a5,56(sp)
   13ba2:	4905                	li	s2,1
   13ba4:	f4eff06f          	j	132f2 <__printf_buffer+0x3c4>
   13ba8:	000c059b          	sext.w	a1,s8
